
RE_music.exe:     file format pei-i386


Disassembly of section .flat:

00401000 <.flat>:
	...
  401044:	00 00                	add    BYTE PTR [eax],al
  401046:	56                   	push   esi
  401047:	41                   	inc    ecx
  401048:	ab                   	stos   DWORD PTR es:[edi],eax
  401049:	aa                   	stos   BYTE PTR es:[edi],al
  40104a:	aa                   	stos   BYTE PTR es:[edi],al
  40104b:	3d 00 00 90 45       	cmp    eax,0x45900000
  401050:	00 00                	add    BYTE PTR [eax],al
  401052:	80 3c 59 51          	cmp    BYTE PTR [ecx+ebx*2],0x51
  401056:	1c 44                	sbb    al,0x44
  401058:	00 00                	add    BYTE PTR [eax],al
  40105a:	00 00                	add    BYTE PTR [eax],al
  40105c:	00 00                	add    BYTE PTR [eax],al
  40105e:	70 40                	jo     0x4010a0
  401060:	7a 00                	jp     0x401062
  401062:	8b fc                	mov    edi,esp
  401064:	fa                   	cli    
  401065:	21 a9 3f 00 00 00    	and    DWORD PTR [ecx+0x3f],ebp
  40106b:	00 00                	add    BYTE PTR [eax],al
  40106d:	00 50 40             	add    BYTE PTR [eax+0x40],dl
  401070:	d8 0f                	fmul   DWORD PTR [edi]
  401072:	c9                   	leave  
  401073:	3c 00                	cmp    al,0x0
  401075:	00 ff                	add    bh,bh
  401077:	31 77 c2             	xor    DWORD PTR [edi-0x3e],esi
  40107a:	b9 3c 81 80 80       	mov    ecx,0x8080813c
  40107f:	3b 00                	cmp    eax,DWORD PTR [eax]
  401081:	00 80 3b 00 00 00    	add    BYTE PTR [eax+0x3b],al
  401087:	30 00                	xor    BYTE PTR [eax],al
  401089:	00 00                	add    BYTE PTR [eax],al
  40108b:	3c b8                	cmp    al,0xb8
  40108d:	aa                   	stos   BYTE PTR es:[edi],al
  40108e:	ae                   	scas   al,BYTE PTR es:[edi]
  40108f:	01 00                	add    DWORD PTR [eax],eax
  401091:	8b 4c 24 08          	mov    ecx,DWORD PTR [esp+0x8]
  401095:	99                   	cdq    
  401096:	f7 f1                	div    ecx
  401098:	8b 4c 24 04          	mov    ecx,DWORD PTR [esp+0x4]
  40109c:	89 41 0c             	mov    DWORD PTR [ecx+0xc],eax
  40109f:	c3                   	ret


    
  4010a0:	68 4b 01 00 00       	push   0x14b
  4010a5:	6a 40                	push   0x40
  4010a7:	ff 15 2c 10 40 00    	call   DWORD PTR ds:0x40102c
  4010ad:	56                   	push   esi
  4010ae:	96                   	xchg   esi,eax
  4010af:	ff 74 24 08          	push   DWORD PTR [esp+0x8]
  4010b3:	ff 15 dc 8e 40 00    	call   DWORD PTR ds:0x408edc
  4010b9:	56                   	push   esi
  4010ba:	e8 4a 1a 00 00       	call   0x402b09
  4010bf:	85 c0                	test   eax,eax
  4010c1:	75 08                	jne    0x4010cb
  4010c3:	56                   	push   esi
  4010c4:	e8 0f 00 00 00       	call   0x4010d8
  4010c9:	33 f6                	xor    esi,esi
  4010cb:	ff 15 64 9f 40 00    	call   DWORD PTR ds:0x409f64
  4010d1:	59                   	pop    ecx
  4010d2:	59                   	pop    ecx
  4010d3:	96                   	xchg   esi,eax
  4010d4:	5e                   	pop    esi
  4010d5:	c2 04 00             	ret


    0x4
  4010d8:	55                   	push   ebp
  4010d9:	8b ec                	mov    ebp,esp
  4010db:	83 ec 10             	sub    esp,0x10
  4010de:	56                   	push   esi
  4010df:	8b 75 08             	mov    esi,DWORD PTR [ebp+0x8]
  4010e2:	57                   	push   edi
  4010e3:	33 ff                	xor    edi,edi
  4010e5:	3b f7                	cmp    esi,edi
  4010e7:	0f 84 a1 00 00 00    	je     0x40118e
  4010ed:	80 3d 10 39 40 00 00 	cmp    BYTE PTR ds:0x403910,0x0
  4010f4:	74 02                	je     0x4010f8
  4010f6:	eb fe                	jmp    0x4010f6
  4010f8:	53                   	push   ebx
  4010f9:	56                   	push   esi
  4010fa:	e8 98 02 00 00       	call   0x401397
  4010ff:	39 7e 04             	cmp    DWORD PTR [esi+0x4],edi
  401102:	8b 1d 30 10 40 00    	mov    ebx,DWORD PTR ds:0x401030
  401108:	74 61                	je     0x40116b
  40110a:	66 39 7e 1e          	cmp    WORD PTR [esi+0x1e],di
  40110e:	89 7d f4             	mov    DWORD PTR [ebp-0xc],edi
  401111:	7e 50                	jle    0x401163
  401113:	89 7d f8             	mov    DWORD PTR [ebp-0x8],edi
  401116:	8b 7e 04             	mov    edi,DWORD PTR [esi+0x4]
  401119:	83 65 fc 00          	and    DWORD PTR [ebp-0x4],0x0
  40111d:	03 7d f8             	add    edi,DWORD PTR [ebp-0x8]
  401120:	83 3f 00             	cmp    DWORD PTR [edi],0x0
  401123:	7e 29                	jle    0x40114e
  401125:	8d 47 04             	lea    eax,[edi+0x4]
  401128:	89 45 08             	mov    DWORD PTR [ebp+0x8],eax
  40112b:	8b 45 08             	mov    eax,DWORD PTR [ebp+0x8]
  40112e:	8b 00                	mov    eax,DWORD PTR [eax]
  401130:	85 c0                	test   eax,eax
  401132:	89 45 f0             	mov    DWORD PTR [ebp-0x10],eax
  401135:	74 09                	je     0x401140
  401137:	ff 30                	push   DWORD PTR [eax]
  401139:	ff d3                	call   ebx
  40113b:	ff 75 f0             	push   DWORD PTR [ebp-0x10]
  40113e:	ff d3                	call   ebx
  401140:	ff 45 fc             	inc    DWORD PTR [ebp-0x4]
  401143:	83 45 08 04          	add    DWORD PTR [ebp+0x8],0x4
  401147:	8b 45 fc             	mov    eax,DWORD PTR [ebp-0x4]
  40114a:	3b 07                	cmp    eax,DWORD PTR [edi]
  40114c:	7c dd                	jl     0x40112b
  40114e:	0f bf 46 1e          	movsx  eax,WORD PTR [esi+0x1e]
  401152:	ff 45 f4             	inc    DWORD PTR [ebp-0xc]
  401155:	81 45 f8 14 01 00 00 	add    DWORD PTR [ebp-0x8],0x114
  40115c:	39 45 f4             	cmp    DWORD PTR [ebp-0xc],eax
  40115f:	7c b5                	jl     0x401116
  401161:	33 ff                	xor    edi,edi
  401163:	ff 76 04             	push   DWORD PTR [esi+0x4]
  401166:	ff d3                	call   ebx
  401168:	89 7e 04             	mov    DWORD PTR [esi+0x4],edi
  40116b:	39 3e                	cmp    DWORD PTR [esi],edi
  40116d:	74 1b                	je     0x40118a
  40116f:	83 7e 14 00          	cmp    DWORD PTR [esi+0x14],0x0
  401173:	7e 0e                	jle    0x401183
  401175:	8b 06                	mov    eax,DWORD PTR [esi]
  401177:	ff 74 f8 04          	push   DWORD PTR [eax+edi*8+0x4]
  40117b:	ff d3                	call   ebx
  40117d:	47                   	inc    edi
  40117e:	3b 7e 14             	cmp    edi,DWORD PTR [esi+0x14]
  401181:	7c f2                	jl     0x401175
  401183:	ff 36                	push   DWORD PTR [esi]
  401185:	ff d3                	call   ebx
  401187:	83 26 00             	and    DWORD PTR [esi],0x0
  40118a:	56                   	push   esi
  40118b:	ff d3                	call   ebx
  40118d:	5b                   	pop    ebx
  40118e:	5f                   	pop    edi
  40118f:	5e                   	pop    esi
  401190:	c9                   	leave  
  401191:	c2 04 00             	ret


    0x4
  401194:	55                   	push   ebp
  401195:	8b ec                	mov    ebp,esp
  401197:	83 ec 14             	sub    esp,0x14
  40119a:	53                   	push   ebx
  40119b:	56                   	push   esi
  40119c:	8b 75 08             	mov    esi,DWORD PTR [ebp+0x8]
  40119f:	57                   	push   edi
  4011a0:	56                   	push   esi
  4011a1:	e8 f1 01 00 00       	call   0x401397
  4011a6:	85 c0                	test   eax,eax
  4011a8:	0f 84 32 01 00 00    	je     0x4012e0
  4011ae:	b9 00 15 00 00       	mov    ecx,0x1500
  4011b3:	33 c0                	xor    eax,eax
  4011b5:	bf a0 39 40 00       	mov    edi,0x4039a0
  4011ba:	33 db                	xor    ebx,ebx
  4011bc:	f3 ab                	rep stos DWORD PTR es:[edi],eax
  4011be:	c7 05 e8 8e 40 00 50 	mov    DWORD PTR ds:0x408ee8,0x15950
  4011c5:	59 01 00 
  4011c8:	33 c9                	xor    ecx,ecx
  4011ca:	b8 d0 39 40 00       	mov    eax,0x4039d0
  4011cf:	89 48 d0             	mov    DWORD PTR [eax-0x30],ecx
  4011d2:	c7 00 01 00 00 00    	mov    DWORD PTR [eax],0x1
  4011d8:	83 c0 54             	add    eax,0x54
  4011db:	41                   	inc    ecx
  4011dc:	3d d0 8d 40 00       	cmp    eax,0x408dd0
  4011e1:	7c ec                	jl     0x4011cf
  4011e3:	0f bf 46 22          	movsx  eax,WORD PTR [esi+0x22]
  4011e7:	83 8e 42 01 00 00 ff 	or     DWORD PTR [esi+0x142],0xffffffff
  4011ee:	83 8e 3e 01 00 00 ff 	or     DWORD PTR [esi+0x13e],0xffffffff
  4011f5:	89 86 2e 01 00 00    	mov    DWORD PTR [esi+0x12e],eax
  4011fb:	89 4d 08             	mov    DWORD PTR [ebp+0x8],ecx
  4011fe:	0f bf 46 24          	movsx  eax,WORD PTR [esi+0x24]
  401202:	50                   	push   eax
  401203:	56                   	push   esi
  401204:	c7 86 26 01 00 00 40 	mov    DWORD PTR [esi+0x126],0x40
  40120b:	00 00 00 
  40120e:	89 9e 32 01 00 00    	mov    DWORD PTR [esi+0x132],ebx
  401214:	89 9e 36 01 00 00    	mov    DWORD PTR [esi+0x136],ebx
  40121a:	89 5e 08             	mov    DWORD PTR [esi+0x8],ebx
  40121d:	89 9e 2a 01 00 00    	mov    DWORD PTR [esi+0x12a],ebx
  401223:	89 9e 3a 01 00 00    	mov    DWORD PTR [esi+0x13a],ebx
  401229:	89 9e 46 01 00 00    	mov    DWORD PTR [esi+0x146],ebx
  40122f:	e8 58 fe ff ff       	call   0x40108c
  401234:	59                   	pop    ecx
  401235:	33 c0                	xor    eax,eax
  401237:	59                   	pop    ecx
  401238:	bf 00 8f 40 00       	mov    edi,0x408f00
  40123d:	0f bf 4e 1c          	movsx  ecx,WORD PTR [esi+0x1c]
  401241:	69 c9 83 00 00 00    	imul   ecx,ecx,0x83
  401247:	8b d1                	mov    edx,ecx
  401249:	89 5d 08             	mov    DWORD PTR [ebp+0x8],ebx
  40124c:	c1 e9 02             	shr    ecx,0x2
  40124f:	f3 ab                	rep stos DWORD PTR es:[edi],eax
  401251:	8b ca                	mov    ecx,edx
  401253:	83 e1 03             	and    ecx,0x3
  401256:	f3 aa                	rep stos BYTE PTR es:[edi],al
  401258:	66 39 5e 1c          	cmp    WORD PTR [esi+0x1c],bx
  40125c:	7e 26                	jle    0x401284
  40125e:	8b 45 08             	mov    eax,DWORD PTR [ebp+0x8]
  401261:	8b 4d 08             	mov    ecx,DWORD PTR [ebp+0x8]
  401264:	6b c0 54             	imul   eax,eax,0x54
  401267:	69 c9 83 00 00 00    	imul   ecx,ecx,0x83
  40126d:	05 a0 39 40 00       	add    eax,0x4039a0
  401272:	89 81 03 8f 40 00    	mov    DWORD PTR [ecx+0x408f03],eax
  401278:	ff 45 08             	inc    DWORD PTR [ebp+0x8]
  40127b:	0f bf 46 1c          	movsx  eax,WORD PTR [esi+0x1c]
  40127f:	39 45 08             	cmp    DWORD PTR [ebp+0x8],eax
  401282:	7c da                	jl     0x40125e
  401284:	89 35 00 39 40 00    	mov    DWORD PTR ds:0x403900,esi
  40128a:	8b 35 2c 10 40 00    	mov    esi,DWORD PTR ds:0x40102c
  401290:	68 58 02 00 00       	push   0x258
  401295:	6a 40                	push   0x40
  401297:	ff d6                	call   esi
  401299:	a3 08 39 40 00       	mov    ds:0x403908,eax
  40129e:	53                   	push   ebx
  40129f:	53                   	push   ebx
  4012a0:	8d 45 ec             	lea    eax,[ebp-0x14]
  4012a3:	53                   	push   ebx
  4012a4:	50                   	push   eax
  4012a5:	6a ff                	push   0xffffffff
  4012a7:	68 84 39 40 00       	push   0x403984
  4012ac:	66 c7 45 ec 01 00    	mov    WORD PTR [ebp-0x14],0x1
  4012b2:	66 c7 45 ee 02 00    	mov    WORD PTR [ebp-0x12],0x2
  4012b8:	66 c7 45 fa 10 00    	mov    WORD PTR [ebp-0x6],0x10
  4012be:	66 c7 45 f8 04 00    	mov    WORD PTR [ebp-0x8],0x4
  4012c4:	c7 45 f0 44 ac 00 00 	mov    DWORD PTR [ebp-0x10],0xac44
  4012cb:	c7 45 f4 10 b1 02 00 	mov    DWORD PTR [ebp-0xc],0x2b110
  4012d2:	66 89 5d fc          	mov    WORD PTR [ebp-0x4],bx
  4012d6:	ff 15 18 10 40 00    	call   DWORD PTR ds:0x401018
  4012dc:	85 c0                	test   eax,eax
  4012de:	74 07                	je     0x4012e7
  4012e0:	33 c0                	xor    eax,eax
  4012e2:	e9 a9 00 00 00       	jmp    0x401390
  4012e7:	a1 e8 8e 40 00       	mov    eax,ds:0x408ee8
  4012ec:	c1 e0 02             	shl    eax,0x2
  4012ef:	50                   	push   eax
  4012f0:	6a 40                	push   0x40
  4012f2:	a3 64 39 40 00       	mov    ds:0x403964,eax
  4012f7:	ff d6                	call   esi
  4012f9:	83 0d 74 39 40 00 ff 	or     DWORD PTR ds:0x403974,0xffffffff
  401300:	bf 60 39 40 00       	mov    edi,0x403960
  401305:	6a 20                	push   0x20
  401307:	57                   	push   edi
  401308:	ff 35 84 39 40 00    	push   DWORD PTR ds:0x403984
  40130e:	a3 80 39 40 00       	mov    ds:0x403980,eax
  401313:	c7 05 70 39 40 00 0c 	mov    DWORD PTR ds:0x403970,0xc
  40131a:	00 00 00 
  40131d:	a3 60 39 40 00       	mov    ds:0x403960,eax
  401322:	89 1d 68 39 40 00    	mov    DWORD PTR ds:0x403968,ebx
  401328:	89 1d 6c 39 40 00    	mov    DWORD PTR ds:0x40396c,ebx
  40132e:	ff 15 14 10 40 00    	call   DWORD PTR ds:0x401014
  401334:	a1 e8 8e 40 00       	mov    eax,ds:0x408ee8
  401339:	8d 04 c5 00 01 00 00 	lea    eax,[eax*8+0x100]
  401340:	50                   	push   eax
  401341:	6a 40                	push   0x40
  401343:	ff d6                	call   esi
  401345:	a3 60 9f 40 00       	mov    ds:0x409f60,eax
  40134a:	83 c0 0f             	add    eax,0xf
  40134d:	24 f0                	and    al,0xf0
  40134f:	a3 e4 8e 40 00       	mov    ds:0x408ee4,eax
  401354:	e8 5d 1d 00 00       	call   0x4030b6
  401359:	39 1d 14 39 40 00    	cmp    DWORD PTR ds:0x403914,ebx
  40135f:	75 f3                	jne    0x401354
  401361:	6a 20                	push   0x20
  401363:	57                   	push   edi
  401364:	ff 35 84 39 40 00    	push   DWORD PTR ds:0x403984
  40136a:	ff 15 10 10 40 00    	call   DWORD PTR ds:0x401010
  401370:	8d 45 08             	lea    eax,[ebp+0x8]
  401373:	88 1d 04 39 40 00    	mov    BYTE PTR ds:0x403904,bl
  401379:	50                   	push   eax
  40137a:	53                   	push   ebx
  40137b:	53                   	push   ebx
  40137c:	68 34 32 40 00       	push   0x403234
  401381:	53                   	push   ebx
  401382:	53                   	push   ebx
  401383:	ff 15 20 10 40 00    	call   DWORD PTR ds:0x401020
  401389:	50                   	push   eax
  40138a:	ff 15 28 10 40 00    	call   DWORD PTR ds:0x401028
  401390:	5f                   	pop    edi
  401391:	5e                   	pop    esi
  401392:	5b                   	pop    ebx
  401393:	c9                   	leave  
  401394:	c2 04 00             	ret


    0x4
  401397:	53                   	push   ebx
  401398:	33 db                	xor    ebx,ebx
  40139a:	39 5c 24 08          	cmp    DWORD PTR [esp+0x8],ebx
  40139e:	75 07                	jne    0x4013a7
  4013a0:	33 c0                	xor    eax,eax
  4013a2:	e9 a0 00 00 00       	jmp    0x401447
  4013a7:	fe 05 04 39 40 00    	inc    BYTE PTR ds:0x403904
  4013ad:	38 1d 10 39 40 00    	cmp    BYTE PTR ds:0x403910,bl
  4013b3:	74 02                	je     0x4013b7
  4013b5:	eb fe                	jmp    0x4013b5
  4013b7:	38 1d 11 39 40 00    	cmp    BYTE PTR ds:0x403911,bl
  4013bd:	74 0a                	je     0x4013c9
  4013bf:	6a 0a                	push   0xa
  4013c1:	ff 15 34 10 40 00    	call   DWORD PTR ds:0x401034
  4013c7:	eb ee                	jmp    0x4013b7
  4013c9:	56                   	push   esi
  4013ca:	8b 35 30 10 40 00    	mov    esi,DWORD PTR ds:0x401030
  4013d0:	ff 35 60 9f 40 00    	push   DWORD PTR ds:0x409f60
  4013d6:	ff d6                	call   esi
  4013d8:	39 1d 60 39 40 00    	cmp    DWORD PTR ds:0x403960,ebx
  4013de:	89 1d 60 9f 40 00    	mov    DWORD PTR ds:0x409f60,ebx
  4013e4:	89 1d 00 39 40 00    	mov    DWORD PTR ds:0x403900,ebx
  4013ea:	74 28                	je     0x401414
  4013ec:	6a 20                	push   0x20
  4013ee:	68 60 39 40 00       	push   0x403960
  4013f3:	ff 35 84 39 40 00    	push   DWORD PTR ds:0x403984
  4013f9:	ff 15 08 10 40 00    	call   DWORD PTR ds:0x401008
  4013ff:	ff 35 60 39 40 00    	push   DWORD PTR ds:0x403960
  401405:	83 25 70 39 40 00 fd 	and    DWORD PTR ds:0x403970,0xfffffffd
  40140c:	ff d6                	call   esi
  40140e:	89 1d 60 39 40 00    	mov    DWORD PTR ds:0x403960,ebx
  401414:	ff 35 08 39 40 00    	push   DWORD PTR ds:0x403908
  40141a:	ff d6                	call   esi
  40141c:	ff 35 84 39 40 00    	push   DWORD PTR ds:0x403984
  401422:	89 1d 08 39 40 00    	mov    DWORD PTR ds:0x403908,ebx
  401428:	89 1d 14 39 40 00    	mov    DWORD PTR ds:0x403914,ebx
  40142e:	89 1d 5c 39 40 00    	mov    DWORD PTR ds:0x40395c,ebx
  401434:	ff 15 00 10 40 00    	call   DWORD PTR ds:0x401000
  40143a:	ff 35 84 39 40 00    	push   DWORD PTR ds:0x403984
  401440:	ff 15 0c 10 40 00    	call   DWORD PTR ds:0x40100c
  401446:	5e                   	pop    esi
  401447:	5b                   	pop    ebx
  401448:	c2 04 00             	ret


    0x4
  40144b:	58                   	pop    eax
  40144c:	8f 05 dc 8e 40 00    	pop    DWORD PTR ds:0x408edc
  401452:	8f 05 64 9f 40 00    	pop    DWORD PTR ds:0x409f64
  401458:	8f 05 e0 8e 40 00    	pop    DWORD PTR ds:0x408ee0
  40145e:	8f 05 6c 9f 40 00    	pop    DWORD PTR ds:0x409f6c
  401464:	8f 05 68 9f 40 00    	pop    DWORD PTR ds:0x409f68
  40146a:	ff e0                	jmp    eax
  40146c:	8b 44 24 04          	mov    eax,DWORD PTR [esp+0x4]
  401470:	56                   	push   esi
  401471:	8b 50 0b             	mov    edx,DWORD PTR [eax+0xb]
  401474:	8b 48 69             	mov    ecx,DWORD PTR [eax+0x69]
  401477:	3b d1                	cmp    edx,ecx
  401479:	7d 10                	jge    0x40148b
  40147b:	0f b6 70 6d          	movzx  esi,BYTE PTR [eax+0x6d]
  40147f:	8d 14 b2             	lea    edx,[edx+esi*4]
  401482:	3b d1                	cmp    edx,ecx
  401484:	89 50 0b             	mov    DWORD PTR [eax+0xb],edx
  401487:	7e 17                	jle    0x4014a0
  401489:	eb 12                	jmp    0x40149d
  40148b:	7e 13                	jle    0x4014a0
  40148d:	0f b6 70 6d          	movzx  esi,BYTE PTR [eax+0x6d]
  401491:	c1 e6 02             	shl    esi,0x2
  401494:	2b d6                	sub    edx,esi
  401496:	3b d1                	cmp    edx,ecx
  401498:	89 50 0b             	mov    DWORD PTR [eax+0xb],edx
  40149b:	7d 03                	jge    0x4014a0
  40149d:	89 48 0b             	mov    DWORD PTR [eax+0xb],ecx
  4014a0:	80 48 02 01          	or     BYTE PTR [eax+0x2],0x1
  4014a4:	5e                   	pop    esi
  4014a5:	c3                   	ret


    
  4014a6:	55                   	push   ebp
  4014a7:	8b ec                	mov    ebp,esp
  4014a9:	51                   	push   ecx
  4014aa:	51                   	push   ecx
  4014ab:	8b 4d 08             	mov    ecx,DWORD PTR [ebp+0x8]
  4014ae:	8a 41 7f             	mov    al,BYTE PTR [ecx+0x7f]
  4014b1:	83 e0 03             	and    eax,0x3
  4014b4:	74 2b                	je     0x4014e1
  4014b6:	83 f8 01             	cmp    eax,0x1
  4014b9:	74 0e                	je     0x4014c9
  4014bb:	7e 48                	jle    0x401505
  4014bd:	83 f8 03             	cmp    eax,0x3
  4014c0:	7f 43                	jg     0x401505
  4014c2:	ba ff 00 00 00       	mov    edx,0xff
  4014c7:	eb 3f                	jmp    0x401508
  4014c9:	8a 51 6e             	mov    dl,BYTE PTR [ecx+0x6e]
  4014cc:	8a c2                	mov    al,dl
  4014ce:	c0 e0 03             	shl    al,0x3
  4014d1:	84 d2                	test   dl,dl
  4014d3:	7d 07                	jge    0x4014dc
  4014d5:	80 ca ff             	or     dl,0xff
  4014d8:	2a d0                	sub    dl,al
  4014da:	8a c2                	mov    al,dl
  4014dc:	0f b6 d0             	movzx  edx,al
  4014df:	eb 27                	jmp    0x401508
  4014e1:	0f be 41 6e          	movsx  eax,BYTE PTR [ecx+0x6e]
  4014e5:	89 45 08             	mov    DWORD PTR [ebp+0x8],eax
  4014e8:	db 45 08             	fild   DWORD PTR [ebp+0x8]
  4014eb:	dc c0                	fadd   st(0),st
  4014ed:	dc 0d 60 10 40 00    	fmul   QWORD PTR ds:0x401060
  4014f3:	d9 fe                	fsin   
  4014f5:	dc 0d 58 10 40 00    	fmul   QWORD PTR ds:0x401058
  4014fb:	d9 e1                	fabs   
  4014fd:	df 7d f8             	fistp  QWORD PTR [ebp-0x8]
  401500:	8b 55 f8             	mov    edx,DWORD PTR [ebp-0x8]
  401503:	eb 03                	jmp    0x401508
  401505:	8b 55 08             	mov    edx,DWORD PTR [ebp+0x8]
  401508:	0f b6 41 70          	movzx  eax,BYTE PTR [ecx+0x70]
  40150c:	0f af c2             	imul   eax,edx
  40150f:	c1 f8 05             	sar    eax,0x5
  401512:	24 fc                	and    al,0xfc
  401514:	80 79 6e 00          	cmp    BYTE PTR [ecx+0x6e],0x0
  401518:	7c 02                	jl     0x40151c
  40151a:	f7 d8                	neg    eax
  40151c:	89 41 1b             	mov    DWORD PTR [ecx+0x1b],eax
  40151f:	80 49 02 01          	or     BYTE PTR [ecx+0x2],0x1
  401523:	c9                   	leave  
  401524:	c3                   	ret


    
  401525:	55                   	push   ebp
  401526:	8b ec                	mov    ebp,esp
  401528:	51                   	push   ecx
  401529:	51                   	push   ecx
  40152a:	53                   	push   ebx
  40152b:	56                   	push   esi
  40152c:	8b 75 0c             	mov    esi,DWORD PTR [ebp+0xc]
  40152f:	8b 4d 08             	mov    ecx,DWORD PTR [ebp+0x8]
  401532:	57                   	push   edi
  401533:	0f b6 86 0e 01 00 00 	movzx  eax,BYTE PTR [esi+0x10e]
  40153a:	83 e8 00             	sub    eax,0x0
  40153d:	74 4f                	je     0x40158e
  40153f:	48                   	dec    eax
  401540:	74 37                	je     0x401579
  401542:	48                   	dec    eax
  401543:	74 1e                	je     0x401563
  401545:	48                   	dec    eax
  401546:	75 5f                	jne    0x4015a7
  401548:	b8 80 01 00 00       	mov    eax,0x180
  40154d:	bf 00 01 00 00       	mov    edi,0x100
  401552:	2b 41 4d             	sub    eax,DWORD PTR [ecx+0x4d]
  401555:	99                   	cdq    
  401556:	f7 ff                	idiv   edi
  401558:	b8 80 00 00 00       	mov    eax,0x80
  40155d:	2b c2                	sub    eax,edx
  40155f:	d1 f8                	sar    eax,1
  401561:	eb 47                	jmp    0x4015aa
  401563:	8b 41 4d             	mov    eax,DWORD PTR [ecx+0x4d]
  401566:	bf 80 00 00 00       	mov    edi,0x80
  40156b:	03 c7                	add    eax,edi
  40156d:	bb 00 01 00 00       	mov    ebx,0x100
  401572:	99                   	cdq    
  401573:	f7 fb                	idiv   ebx
  401575:	8b c7                	mov    eax,edi
  401577:	eb e4                	jmp    0x40155d
  401579:	bf 80 00 00 00       	mov    edi,0x80
  40157e:	33 c0                	xor    eax,eax
  401580:	39 79 4d             	cmp    DWORD PTR [ecx+0x4d],edi
  401583:	0f 9d c0             	setge  al
  401586:	48                   	dec    eax
  401587:	23 c7                	and    eax,edi
  401589:	83 c0 c0             	add    eax,0xffffffc0
  40158c:	eb 1c                	jmp    0x4015aa
  40158e:	db 41 4d             	fild   DWORD PTR [ecx+0x4d]
  401591:	d8 0d 70 10 40 00    	fmul   DWORD PTR ds:0x401070
  401597:	d9 fe                	fsin   
  401599:	dc 0d 68 10 40 00    	fmul   QWORD PTR ds:0x401068
  40159f:	df 7d f8             	fistp  QWORD PTR [ebp-0x8]
  4015a2:	8b 45 f8             	mov    eax,DWORD PTR [ebp-0x8]
  4015a5:	eb 03                	jmp    0x4015aa
  4015a7:	8b 45 0c             	mov    eax,DWORD PTR [ebp+0xc]
  4015aa:	0f b6 96 10 01 00 00 	movzx  edx,BYTE PTR [esi+0x110]
  4015b1:	8a 9e 0f 01 00 00    	mov    bl,BYTE PTR [esi+0x10f]
  4015b7:	0f af d0             	imul   edx,eax
  4015ba:	84 db                	test   bl,bl
  4015bc:	74 0e                	je     0x4015cc
  4015be:	8b 41 51             	mov    eax,DWORD PTR [ecx+0x51]
  4015c1:	0f af c2             	imul   eax,edx
  4015c4:	0f b6 fb             	movzx  edi,bl
  4015c7:	99                   	cdq    
  4015c8:	f7 ff                	idiv   edi
  4015ca:	8b d0                	mov    edx,eax
  4015cc:	c1 fa 06             	sar    edx,0x6
  4015cf:	01 51 1b             	add    DWORD PTR [ecx+0x1b],edx
  4015d2:	ff 41 51             	inc    DWORD PTR [ecx+0x51]
  4015d5:	0f b6 86 0f 01 00 00 	movzx  eax,BYTE PTR [esi+0x10f]
  4015dc:	8b 51 51             	mov    edx,DWORD PTR [ecx+0x51]
  4015df:	3b d0                	cmp    edx,eax
  4015e1:	7e 03                	jle    0x4015e6
  4015e3:	89 41 51             	mov    DWORD PTR [ecx+0x51],eax
  4015e6:	0f b6 86 11 01 00 00 	movzx  eax,BYTE PTR [esi+0x111]
  4015ed:	01 41 4d             	add    DWORD PTR [ecx+0x4d],eax
  4015f0:	8b 41 4d             	mov    eax,DWORD PTR [ecx+0x4d]
  4015f3:	5f                   	pop    edi
  4015f4:	5e                   	pop    esi
  4015f5:	3d ff 00 00 00       	cmp    eax,0xff
  4015fa:	5b                   	pop    ebx
  4015fb:	7e 08                	jle    0x401605
  4015fd:	05 00 ff ff ff       	add    eax,0xffffff00
  401602:	89 41 4d             	mov    DWORD PTR [ecx+0x4d],eax
  401605:	80 49 02 01          	or     BYTE PTR [ecx+0x2],0x1
  401609:	c9                   	leave  
  40160a:	c3                   	ret


    
  40160b:	55                   	push   ebp
  40160c:	8b ec                	mov    ebp,esp
  40160e:	51                   	push   ecx
  40160f:	51                   	push   ecx
  401610:	8b 45 08             	mov    eax,DWORD PTR [ebp+0x8]
  401613:	8a 48 7f             	mov    cl,BYTE PTR [eax+0x7f]
  401616:	c1 e9 04             	shr    ecx,0x4
  401619:	83 e1 03             	and    ecx,0x3
  40161c:	83 e9 00             	sub    ecx,0x0
  40161f:	74 4e                	je     0x40166f
  401621:	49                   	dec    ecx
  401622:	74 33                	je     0x401657
  401624:	49                   	dec    ecx
  401625:	74 27                	je     0x40164e
  401627:	49                   	dec    ecx
  401628:	75 6a                	jne    0x401694
  40162a:	0f be 48 71          	movsx  ecx,BYTE PTR [eax+0x71]
  40162e:	89 4d 08             	mov    DWORD PTR [ebp+0x8],ecx
  401631:	db 45 08             	fild   DWORD PTR [ebp+0x8]
  401634:	dc c0                	fadd   st(0),st
  401636:	dc 0d 60 10 40 00    	fmul   QWORD PTR ds:0x401060
  40163c:	d9 fe                	fsin   
  40163e:	dc 0d 58 10 40 00    	fmul   QWORD PTR ds:0x401058
  401644:	d9 e1                	fabs   
  401646:	df 7d f8             	fistp  QWORD PTR [ebp-0x8]
  401649:	8b 4d f8             	mov    ecx,DWORD PTR [ebp-0x8]
  40164c:	eb 43                	jmp    0x401691
  40164e:	c7 40 17 ff 00 00 00 	mov    DWORD PTR [eax+0x17],0xff
  401655:	eb 3d                	jmp    0x401694
  401657:	8a 50 71             	mov    dl,BYTE PTR [eax+0x71]
  40165a:	8a ca                	mov    cl,dl
  40165c:	c0 e1 03             	shl    cl,0x3
  40165f:	84 d2                	test   dl,dl
  401661:	7d 07                	jge    0x40166a
  401663:	80 ca ff             	or     dl,0xff
  401666:	2a d1                	sub    dl,cl
  401668:	8a ca                	mov    cl,dl
  40166a:	0f b6 c9             	movzx  ecx,cl
  40166d:	eb 22                	jmp    0x401691
  40166f:	0f be 48 71          	movsx  ecx,BYTE PTR [eax+0x71]
  401673:	89 4d 08             	mov    DWORD PTR [ebp+0x8],ecx
  401676:	db 45 08             	fild   DWORD PTR [ebp+0x8]
  401679:	dc c0                	fadd   st(0),st
  40167b:	dc 0d 60 10 40 00    	fmul   QWORD PTR ds:0x401060
  401681:	d9 fe                	fsin   
  401683:	dc 0d 58 10 40 00    	fmul   QWORD PTR ds:0x401058
  401689:	d9 e1                	fabs   
  40168b:	df 7d f8             	fistp  QWORD PTR [ebp-0x8]
  40168e:	8b 4d f8             	mov    ecx,DWORD PTR [ebp-0x8]
  401691:	89 48 17             	mov    DWORD PTR [eax+0x17],ecx
  401694:	0f b6 48 73          	movzx  ecx,BYTE PTR [eax+0x73]
  401698:	0f af 48 17          	imul   ecx,DWORD PTR [eax+0x17]
  40169c:	53                   	push   ebx
  40169d:	8a 58 71             	mov    bl,BYTE PTR [eax+0x71]
  4016a0:	c1 f9 06             	sar    ecx,0x6
  4016a3:	84 db                	test   bl,bl
  4016a5:	89 48 17             	mov    DWORD PTR [eax+0x17],ecx
  4016a8:	7c 11                	jl     0x4016bb
  4016aa:	8b 50 0f             	mov    edx,DWORD PTR [eax+0xf]
  4016ad:	03 ca                	add    ecx,edx
  4016af:	83 f9 40             	cmp    ecx,0x40
  4016b2:	7e 1f                	jle    0x4016d3
  4016b4:	6a 40                	push   0x40
  4016b6:	59                   	pop    ecx
  4016b7:	2b ca                	sub    ecx,edx
  4016b9:	eb 15                	jmp    0x4016d0
  4016bb:	66 8b 48 0f          	mov    cx,WORD PTR [eax+0xf]
  4016bf:	66 2b 48 17          	sub    cx,WORD PTR [eax+0x17]
  4016c3:	79 06                	jns    0x4016cb
  4016c5:	8b 48 0f             	mov    ecx,DWORD PTR [eax+0xf]
  4016c8:	89 48 17             	mov    DWORD PTR [eax+0x17],ecx
  4016cb:	8b 48 17             	mov    ecx,DWORD PTR [eax+0x17]
  4016ce:	f7 d9                	neg    ecx
  4016d0:	89 48 17             	mov    DWORD PTR [eax+0x17],ecx
  4016d3:	8a 48 72             	mov    cl,BYTE PTR [eax+0x72]
  4016d6:	02 cb                	add    cl,bl
  4016d8:	5b                   	pop    ebx
  4016d9:	80 f9 1f             	cmp    cl,0x1f
  4016dc:	88 48 71             	mov    BYTE PTR [eax+0x71],cl
  4016df:	7e 06                	jle    0x4016e7
  4016e1:	80 e9 40             	sub    cl,0x40
  4016e4:	88 48 71             	mov    BYTE PTR [eax+0x71],cl
  4016e7:	80 48 02 02          	or     BYTE PTR [eax+0x2],0x2
  4016eb:	c9                   	leave  
  4016ec:	c3                   	ret


    
  4016ed:	55                   	push   ebp
  4016ee:	8b ec                	mov    ebp,esp
  4016f0:	53                   	push   ebx
  4016f1:	56                   	push   esi
  4016f2:	57                   	push   edi
  4016f3:	8b 7d 0c             	mov    edi,DWORD PTR [ebp+0xc]
  4016f6:	8b 07                	mov    eax,DWORD PTR [edi]
  4016f8:	3b 45 18             	cmp    eax,DWORD PTR [ebp+0x18]
  4016fb:	0f 8d c5 00 00 00    	jge    0x4017c6
  401701:	8b 55 1c             	mov    edx,DWORD PTR [ebp+0x1c]
  401704:	8b 75 10             	mov    esi,DWORD PTR [ebp+0x10]
  401707:	0f b7 0c 82          	movzx  ecx,WORD PTR [edx+eax*4]
  40170b:	39 0e                	cmp    DWORD PTR [esi],ecx
  40170d:	0f 85 a4 00 00 00    	jne    0x4017b7
  401713:	f6 45 14 04          	test   BYTE PTR [ebp+0x14],0x4
  401717:	74 14                	je     0x40172d
  401719:	0f b6 4d 20          	movzx  ecx,BYTE PTR [ebp+0x20]
  40171d:	3b c1                	cmp    eax,ecx
  40171f:	75 0c                	jne    0x40172d
  401721:	0f b6 45 24          	movzx  eax,BYTE PTR [ebp+0x24]
  401725:	89 07                	mov    DWORD PTR [edi],eax
  401727:	0f b7 04 82          	movzx  eax,WORD PTR [edx+eax*4]
  40172b:	89 06                	mov    DWORD PTR [esi],eax
  40172d:	8b 0f                	mov    ecx,DWORD PTR [edi]
  40172f:	0f b7 34 8a          	movzx  esi,WORD PTR [edx+ecx*4]
  401733:	8d 04 8a             	lea    eax,[edx+ecx*4]
  401736:	8d 54 8a 04          	lea    edx,[edx+ecx*4+0x4]
  40173a:	89 75 24             	mov    DWORD PTR [ebp+0x24],esi
  40173d:	0f b7 32             	movzx  esi,WORD PTR [edx]
  401740:	0f b7 58 02          	movzx  ebx,WORD PTR [eax+0x2]
  401744:	0f b7 42 02          	movzx  eax,WORD PTR [edx+0x2]
  401748:	8b 55 18             	mov    edx,DWORD PTR [ebp+0x18]
  40174b:	89 75 20             	mov    DWORD PTR [ebp+0x20],esi
  40174e:	8b f3                	mov    esi,ebx
  401750:	c1 e6 10             	shl    esi,0x10
  401753:	c1 e0 10             	shl    eax,0x10
  401756:	4a                   	dec    edx
  401757:	3b ca                	cmp    ecx,edx
  401759:	75 16                	jne    0x401771
  40175b:	8b 45 2c             	mov    eax,DWORD PTR [ebp+0x2c]
  40175e:	8a 4d 3c             	mov    cl,BYTE PTR [ebp+0x3c]
  401761:	89 18                	mov    DWORD PTR [eax],ebx
  401763:	8b 45 34             	mov    eax,DWORD PTR [ebp+0x34]
  401766:	c6 00 01             	mov    BYTE PTR [eax],0x1
  401769:	8b 45 08             	mov    eax,DWORD PTR [ebp+0x8]
  40176c:	08 48 02             	or     BYTE PTR [eax+0x2],cl
  40176f:	eb 70                	jmp    0x4017e1
  401771:	f6 45 14 02          	test   BYTE PTR [ebp+0x14],0x2
  401775:	74 18                	je     0x40178f
  401777:	0f b6 55 28          	movzx  edx,BYTE PTR [ebp+0x28]
  40177b:	3b ca                	cmp    ecx,edx
  40177d:	75 10                	jne    0x40178f
  40177f:	8b 4d 08             	mov    ecx,DWORD PTR [ebp+0x8]
  401782:	80 79 55 00          	cmp    BYTE PTR [ecx+0x55],0x0
  401786:	75 0a                	jne    0x401792
  401788:	8b 45 2c             	mov    eax,DWORD PTR [ebp+0x2c]
  40178b:	89 18                	mov    DWORD PTR [eax],ebx
  40178d:	eb 4c                	jmp    0x4017db
  40178f:	8b 4d 08             	mov    ecx,DWORD PTR [ebp+0x8]
  401792:	8b 55 20             	mov    edx,DWORD PTR [ebp+0x20]
  401795:	2b 55 24             	sub    edx,DWORD PTR [ebp+0x24]
  401798:	8b da                	mov    ebx,edx
  40179a:	74 0c                	je     0x4017a8
  40179c:	2b c6                	sub    eax,esi
  40179e:	99                   	cdq    
  40179f:	f7 fb                	idiv   ebx
  4017a1:	8b 55 38             	mov    edx,DWORD PTR [ebp+0x38]
  4017a4:	89 02                	mov    DWORD PTR [edx],eax
  4017a6:	eb 06                	jmp    0x4017ae
  4017a8:	8b 45 38             	mov    eax,DWORD PTR [ebp+0x38]
  4017ab:	83 20 00             	and    DWORD PTR [eax],0x0
  4017ae:	8b 45 30             	mov    eax,DWORD PTR [ebp+0x30]
  4017b1:	89 30                	mov    DWORD PTR [eax],esi
  4017b3:	ff 07                	inc    DWORD PTR [edi]
  4017b5:	eb 12                	jmp    0x4017c9
  4017b7:	8b 45 38             	mov    eax,DWORD PTR [ebp+0x38]
  4017ba:	8b 08                	mov    ecx,DWORD PTR [eax]
  4017bc:	8b 45 30             	mov    eax,DWORD PTR [ebp+0x30]
  4017bf:	01 08                	add    DWORD PTR [eax],ecx
  4017c1:	8b 4d 08             	mov    ecx,DWORD PTR [ebp+0x8]
  4017c4:	eb 06                	jmp    0x4017cc
  4017c6:	8b 4d 08             	mov    ecx,DWORD PTR [ebp+0x8]
  4017c9:	8b 75 10             	mov    esi,DWORD PTR [ebp+0x10]
  4017cc:	8b 45 30             	mov    eax,DWORD PTR [ebp+0x30]
  4017cf:	8b 55 2c             	mov    edx,DWORD PTR [ebp+0x2c]
  4017d2:	8b 00                	mov    eax,DWORD PTR [eax]
  4017d4:	c1 f8 10             	sar    eax,0x10
  4017d7:	89 02                	mov    DWORD PTR [edx],eax
  4017d9:	ff 06                	inc    DWORD PTR [esi]
  4017db:	8a 45 3c             	mov    al,BYTE PTR [ebp+0x3c]
  4017de:	08 41 02             	or     BYTE PTR [ecx+0x2],al
  4017e1:	5f                   	pop    edi
  4017e2:	5e                   	pop    esi
  4017e3:	5b                   	pop    ebx
  4017e4:	5d                   	pop    ebp
  4017e5:	c3                   	ret


    
  4017e6:	55                   	push   ebp
  4017e7:	8b ec                	mov    ebp,esp
  4017e9:	8a 4d 0c             	mov    cl,BYTE PTR [ebp+0xc]
  4017ec:	80 f9 10             	cmp    cl,0x10
  4017ef:	72 17                	jb     0x401808
  4017f1:	80 f9 50             	cmp    cl,0x50
  4017f4:	77 12                	ja     0x401808
  4017f6:	8b 45 08             	mov    eax,DWORD PTR [ebp+0x8]
  4017f9:	0f b6 c9             	movzx  ecx,cl
  4017fc:	83 e9 10             	sub    ecx,0x10
  4017ff:	80 48 02 02          	or     BYTE PTR [eax+0x2],0x2
  401803:	89 48 0f             	mov    DWORD PTR [eax+0xf],ecx
  401806:	5d                   	pop    ebp
  401807:	c3                   	ret


    
  401808:	0f b6 c1             	movzx  eax,cl
  40180b:	8b d0                	mov    edx,eax
  40180d:	c1 ea 04             	shr    edx,0x4
  401810:	83 c2 fa             	add    edx,0xfffffffa
  401813:	83 fa 09             	cmp    edx,0x9
  401816:	0f 87 8a 00 00 00    	ja     0x4018a6
  40181c:	ff 24 95 a8 18 40 00 	jmp    DWORD PTR [edx*4+0x4018a8]
  401823:	8b 4d 08             	mov    ecx,DWORD PTR [ebp+0x8]
  401826:	83 e0 0f             	and    eax,0xf
  401829:	29 41 0f             	sub    DWORD PTR [ecx+0xf],eax
  40182c:	79 1c                	jns    0x40184a
  40182e:	83 61 0f 00          	and    DWORD PTR [ecx+0xf],0x0
  401832:	eb 16                	jmp    0x40184a
  401834:	8b 4d 08             	mov    ecx,DWORD PTR [ebp+0x8]
  401837:	83 e0 0f             	and    eax,0xf
  40183a:	6a 40                	push   0x40
  40183c:	01 41 0f             	add    DWORD PTR [ecx+0xf],eax
  40183f:	8b 51 0f             	mov    edx,DWORD PTR [ecx+0xf]
  401842:	58                   	pop    eax
  401843:	3b d0                	cmp    edx,eax
  401845:	7e 03                	jle    0x40184a
  401847:	89 41 0f             	mov    DWORD PTR [ecx+0xf],eax
  40184a:	80 49 02 02          	or     BYTE PTR [ecx+0x2],0x2
  40184e:	5d                   	pop    ebp
  40184f:	c3                   	ret


    
  401850:	8b 45 08             	mov    eax,DWORD PTR [ebp+0x8]
  401853:	80 e1 0f             	and    cl,0xf
  401856:	88 48 6f             	mov    BYTE PTR [eax+0x6f],cl
  401859:	5d                   	pop    ebp
  40185a:	c3                   	ret


    
  40185b:	8b 45 08             	mov    eax,DWORD PTR [ebp+0x8]
  40185e:	80 e1 0f             	and    cl,0xf
  401861:	88 48 70             	mov    BYTE PTR [eax+0x70],cl
  401864:	5d                   	pop    ebp
  401865:	c3                   	ret


    
  401866:	8b 4d 08             	mov    ecx,DWORD PTR [ebp+0x8]
  401869:	83 e0 0f             	and    eax,0xf
  40186c:	c1 e0 04             	shl    eax,0x4
  40186f:	89 41 13             	mov    DWORD PTR [ecx+0x13],eax
  401872:	eb 14                	jmp    0x401888
  401874:	8b 4d 08             	mov    ecx,DWORD PTR [ebp+0x8]
  401877:	83 e0 0f             	and    eax,0xf
  40187a:	29 41 13             	sub    DWORD PTR [ecx+0x13],eax
  40187d:	eb 09                	jmp    0x401888
  40187f:	8b 4d 08             	mov    ecx,DWORD PTR [ebp+0x8]
  401882:	83 e0 0f             	and    eax,0xf
  401885:	01 41 13             	add    DWORD PTR [ecx+0x13],eax
  401888:	80 49 02 04          	or     BYTE PTR [ecx+0x2],0x4
  40188c:	5d                   	pop    ebp
  40188d:	c3                   	ret


    
  40188e:	8b 45 08             	mov    eax,DWORD PTR [ebp+0x8]
  401891:	f6 c1 0f             	test   cl,0xf
  401894:	74 06                	je     0x40189c
  401896:	c0 e1 04             	shl    cl,0x4
  401899:	88 48 6d             	mov    BYTE PTR [eax+0x6d],cl
  40189c:	8b 48 58             	mov    ecx,DWORD PTR [eax+0x58]
  40189f:	80 60 02 f7          	and    BYTE PTR [eax+0x2],0xf7
  4018a3:	89 48 69             	mov    DWORD PTR [eax+0x69],ecx
  4018a6:	5d                   	pop    ebp
  4018a7:	c3                   	ret


    
  4018a8:	23 18                	and    ebx,DWORD PTR [eax]
  4018aa:	40                   	inc    eax
  4018ab:	00 34 18             	add    BYTE PTR [eax+ebx*1],dh
  4018ae:	40                   	inc    eax
  4018af:	00 23                	add    BYTE PTR [ebx],ah
  4018b1:	18 40 00             	sbb    BYTE PTR [eax+0x0],al
  4018b4:	34 18                	xor    al,0x18
  4018b6:	40                   	inc    eax
  4018b7:	00 50 18             	add    BYTE PTR [eax+0x18],dl
  4018ba:	40                   	inc    eax
  4018bb:	00 5b 18             	add    BYTE PTR [ebx+0x18],bl
  4018be:	40                   	inc    eax
  4018bf:	00 66 18             	add    BYTE PTR [esi+0x18],ah
  4018c2:	40                   	inc    eax
  4018c3:	00 74 18 40          	add    BYTE PTR [eax+ebx*1+0x40],dh
  4018c7:	00 7f 18             	add    BYTE PTR [edi+0x18],bh
  4018ca:	40                   	inc    eax
  4018cb:	00 8e 18 40 00 d8    	add    BYTE PTR [esi-0x27ffbfe8],cl
  4018d1:	0d 48 10 40 00       	or     eax,0x401048
  4018d6:	d9 c0                	fld    st(0)
  4018d8:	d9 fc                	frndint 
  4018da:	dc e9                	fsubr  st(1),st
  4018dc:	d9 c9                	fxch   st(1)
  4018de:	d9 f0                	f2xm1  
  4018e0:	d9 e8                	fld1   
  4018e2:	de c1                	faddp  st(1),st
  4018e4:	d9 fd                	fscale 
  4018e6:	dd d9                	fstp   st(1)
  4018e8:	d8 0d 44 10 40 00    	fmul   DWORD PTR ds:0x401044
  4018ee:	c3                   	ret


    
  4018ef:	55                   	push   ebp
  4018f0:	8b ec                	mov    ebp,esp
  4018f2:	8b 55 08             	mov    edx,DWORD PTR [ebp+0x8]
  4018f5:	57                   	push   edi
  4018f6:	b9 84 00 00 00       	mov    ecx,0x84
  4018fb:	8b f9                	mov    edi,ecx
  4018fd:	2b ca                	sub    ecx,edx
  4018ff:	89 4d 08             	mov    DWORD PTR [ebp+0x8],ecx
  401902:	8b 45 0c             	mov    eax,DWORD PTR [ebp+0xc]
  401905:	db 45 08             	fild   DWORD PTR [ebp+0x8]
  401908:	e8 c3 ff ff ff       	call   0x4018d0
  40190d:	85 c0                	test   eax,eax
  40190f:	db 5d 0c             	fistp  DWORD PTR [ebp+0xc]
  401912:	56                   	push   esi
  401913:	8b 75 0c             	mov    esi,DWORD PTR [ebp+0xc]
  401916:	79 1e                	jns    0x401936
  401918:	85 d2                	test   edx,edx
  40191a:	74 1a                	je     0x401936
  40191c:	47                   	inc    edi
  40191d:	2b fa                	sub    edi,edx
  40191f:	89 7d 08             	mov    DWORD PTR [ebp+0x8],edi
  401922:	db 45 08             	fild   DWORD PTR [ebp+0x8]
  401925:	e8 a6 ff ff ff       	call   0x4018d0
  40192a:	db 5d 0c             	fistp  DWORD PTR [ebp+0xc]
  40192d:	8b 55 0c             	mov    edx,DWORD PTR [ebp+0xc]
  401930:	8b ce                	mov    ecx,esi
  401932:	2b ca                	sub    ecx,edx
  401934:	eb 16                	jmp    0x40194c
  401936:	4f                   	dec    edi
  401937:	2b fa                	sub    edi,edx
  401939:	89 7d 08             	mov    DWORD PTR [ebp+0x8],edi
  40193c:	db 45 08             	fild   DWORD PTR [ebp+0x8]
  40193f:	e8 8c ff ff ff       	call   0x4018d0
  401944:	db 5d 0c             	fistp  DWORD PTR [ebp+0xc]
  401947:	8b 4d 0c             	mov    ecx,DWORD PTR [ebp+0xc]
  40194a:	2b ce                	sub    ecx,esi
  40194c:	f7 e9                	imul   ecx
  40194e:	c1 f8 07             	sar    eax,0x7
  401951:	03 c6                	add    eax,esi
  401953:	5e                   	pop    esi
  401954:	5f                   	pop    edi
  401955:	c9                   	leave  
  401956:	c3                   	ret


    
  401957:	8b 44 24 04          	mov    eax,DWORD PTR [esp+0x4]
  40195b:	56                   	push   esi
  40195c:	8a 48 74             	mov    cl,BYTE PTR [eax+0x74]
  40195f:	8a 50 75             	mov    dl,BYTE PTR [eax+0x75]
  401962:	3a ca                	cmp    cl,dl
  401964:	72 08                	jb     0x40196e
  401966:	8b 70 0f             	mov    esi,DWORD PTR [eax+0xf]
  401969:	f7 de                	neg    esi
  40196b:	89 70 17             	mov    DWORD PTR [eax+0x17],esi
  40196e:	0f b6 70 76          	movzx  esi,BYTE PTR [eax+0x76]
  401972:	fe c1                	inc    cl
  401974:	0f b6 d2             	movzx  edx,dl
  401977:	88 48 74             	mov    BYTE PTR [eax+0x74],cl
  40197a:	03 f2                	add    esi,edx
  40197c:	0f b6 c9             	movzx  ecx,cl
  40197f:	3b ce                	cmp    ecx,esi
  401981:	5e                   	pop    esi
  401982:	7c 04                	jl     0x401988
  401984:	80 60 74 00          	and    BYTE PTR [eax+0x74],0x0
  401988:	80 48 02 02          	or     BYTE PTR [eax+0x2],0x2
  40198c:	c3                   	ret


    
  40198d:	55                   	push   ebp
  40198e:	8b ec                	mov    ebp,esp
  401990:	83 ec 0c             	sub    esp,0xc
  401993:	53                   	push   ebx
  401994:	8b 5d 08             	mov    ebx,DWORD PTR [ebp+0x8]
  401997:	56                   	push   esi
  401998:	57                   	push   edi
  401999:	8b 73 03             	mov    esi,DWORD PTR [ebx+0x3]
  40199c:	85 f6                	test   esi,esi
  40199e:	89 75 f4             	mov    DWORD PTR [ebp-0xc],esi
  4019a1:	74 05                	je     0x4019a8
  4019a3:	8b 06                	mov    eax,DWORD PTR [esi]
  4019a5:	89 45 fc             	mov    DWORD PTR [ebp-0x4],eax
  4019a8:	8b 43 0b             	mov    eax,DWORD PTR [ebx+0xb]
  4019ab:	03 43 1b             	add    eax,DWORD PTR [ebx+0x1b]
  4019ae:	75 04                	jne    0x4019b4
  4019b0:	80 63 02 fe          	and    BYTE PTR [ebx+0x2],0xfe
  4019b4:	f6 43 02 08          	test   BYTE PTR [ebx+0x2],0x8
  4019b8:	0f 84 8c 00 00 00    	je     0x401a4a
  4019be:	8b 45 fc             	mov    eax,DWORD PTR [ebp-0x4]
  4019c1:	6b c0 54             	imul   eax,eax,0x54
  4019c4:	05 a0 39 40 00       	add    eax,0x4039a0
  4019c9:	89 45 f4             	mov    DWORD PTR [ebp-0xc],eax
  4019cc:	83 78 18 00          	cmp    DWORD PTR [eax+0x18],0x0
  4019d0:	74 40                	je     0x401a12
  4019d2:	83 7d fc 20          	cmp    DWORD PTR [ebp-0x4],0x20
  4019d6:	7d 06                	jge    0x4019de
  4019d8:	83 45 fc 20          	add    DWORD PTR [ebp-0x4],0x20
  4019dc:	eb 04                	jmp    0x4019e2
  4019de:	83 6d fc 20          	sub    DWORD PTR [ebp-0x4],0x20
  4019e2:	8b 4d fc             	mov    ecx,DWORD PTR [ebp-0x4]
  4019e5:	6a 15                	push   0x15
  4019e7:	6b c9 54             	imul   ecx,ecx,0x54
  4019ea:	8b f0                	mov    esi,eax
  4019ec:	8d 91 a0 39 40 00    	lea    edx,[ecx+0x4039a0]
  4019f2:	59                   	pop    ecx
  4019f3:	8b fa                	mov    edi,edx
  4019f5:	89 55 f4             	mov    DWORD PTR [ebp-0xc],edx
  4019f8:	f3 a5                	rep movs DWORD PTR es:[edi],DWORD PTR ds:[esi]
  4019fa:	8b 4d fc             	mov    ecx,DWORD PTR [ebp-0x4]
  4019fd:	89 0a                	mov    DWORD PTR [edx],ecx
  4019ff:	33 c9                	xor    ecx,ecx
  401a01:	89 48 0c             	mov    DWORD PTR [eax+0xc],ecx
  401a04:	89 48 04             	mov    DWORD PTR [eax+0x4],ecx
  401a07:	89 48 1c             	mov    DWORD PTR [eax+0x1c],ecx
  401a0a:	89 48 20             	mov    DWORD PTR [eax+0x20],ecx
  401a0d:	89 53 03             	mov    DWORD PTR [ebx+0x3],edx
  401a10:	8b c2                	mov    eax,edx
  401a12:	8b 55 0c             	mov    edx,DWORD PTR [ebp+0xc]
  401a15:	8d 48 14             	lea    ecx,[eax+0x14]
  401a18:	89 50 18             	mov    DWORD PTR [eax+0x18],edx
  401a1b:	8b 72 0c             	mov    esi,DWORD PTR [edx+0xc]
  401a1e:	03 72 08             	add    esi,DWORD PTR [edx+0x8]
  401a21:	39 31                	cmp    DWORD PTR [ecx],esi
  401a23:	72 06                	jb     0x401a2b
  401a25:	33 d2                	xor    edx,edx
  401a27:	89 11                	mov    DWORD PTR [ecx],edx
  401a29:	eb 02                	jmp    0x401a2d
  401a2b:	33 d2                	xor    edx,edx
  401a2d:	8b 31                	mov    esi,DWORD PTR [ecx]
  401a2f:	89 50 28             	mov    DWORD PTR [eax+0x28],edx
  401a32:	89 70 24             	mov    DWORD PTR [eax+0x24],esi
  401a35:	8b 75 f4             	mov    esi,DWORD PTR [ebp-0xc]
  401a38:	c7 40 34 01 00 00 00 	mov    DWORD PTR [eax+0x34],0x1
  401a3f:	89 11                	mov    DWORD PTR [ecx],edx
  401a41:	89 50 40             	mov    DWORD PTR [eax+0x40],edx
  401a44:	89 50 44             	mov    DWORD PTR [eax+0x44],edx
  401a47:	89 50 50             	mov    DWORD PTR [eax+0x50],edx
  401a4a:	f6 43 02 02          	test   BYTE PTR [ebx+0x2],0x2
  401a4e:	bf ff 00 00 00       	mov    edi,0xff
  401a53:	74 4f                	je     0x401aa4
  401a55:	8b 43 17             	mov    eax,DWORD PTR [ebx+0x17]
  401a58:	03 43 0f             	add    eax,DWORD PTR [ebx+0xf]
  401a5b:	85 f6                	test   esi,esi
  401a5d:	89 45 0c             	mov    DWORD PTR [ebp+0xc],eax
  401a60:	8b 45 10             	mov    eax,DWORD PTR [ebp+0x10]
  401a63:	db 45 0c             	fild   DWORD PTR [ebp+0xc]
  401a66:	db 43 2b             	fild   DWORD PTR [ebx+0x2b]
  401a69:	de c9                	fmulp  st(1),st
  401a6b:	da 4b 49             	fimul  DWORD PTR [ebx+0x49]
  401a6e:	da 88 26 01 00 00    	fimul  DWORD PTR [eax+0x126]
  401a74:	d8 0d 74 10 40 00    	fmul   DWORD PTR ds:0x401074
  401a7a:	df 7d f8             	fistp  QWORD PTR [ebp-0x8]
  401a7d:	8b 4d f8             	mov    ecx,DWORD PTR [ebp-0x8]
  401a80:	74 22                	je     0x401aa4
  401a82:	8b 46 10             	mov    eax,DWORD PTR [esi+0x10]
  401a85:	89 4e 0c             	mov    DWORD PTR [esi+0xc],ecx
  401a88:	0f af c1             	imul   eax,ecx
  401a8b:	99                   	cdq    
  401a8c:	f7 ff                	idiv   edi
  401a8e:	89 4e 04             	mov    DWORD PTR [esi+0x4],ecx
  401a91:	89 46 1c             	mov    DWORD PTR [esi+0x1c],eax
  401a94:	8b c7                	mov    eax,edi
  401a96:	2b 46 10             	sub    eax,DWORD PTR [esi+0x10]
  401a99:	0f af c1             	imul   eax,ecx
  401a9c:	99                   	cdq    
  401a9d:	8b cf                	mov    ecx,edi
  401a9f:	f7 f9                	idiv   ecx
  401aa1:	89 46 20             	mov    DWORD PTR [esi+0x20],eax
  401aa4:	f6 43 02 04          	test   BYTE PTR [ebx+0x2],0x4
  401aa8:	74 58                	je     0x401b02
  401aaa:	8b 43 13             	mov    eax,DWORD PTR [ebx+0x13]
  401aad:	6a 20                	push   0x20
  401aaf:	83 c0 80             	add    eax,0xffffff80
  401ab2:	99                   	cdq    
  401ab3:	8b c8                	mov    ecx,eax
  401ab5:	b8 80 00 00 00       	mov    eax,0x80
  401aba:	33 ca                	xor    ecx,edx
  401abc:	2b ca                	sub    ecx,edx
  401abe:	2b c1                	sub    eax,ecx
  401ac0:	59                   	pop    ecx
  401ac1:	99                   	cdq    
  401ac2:	f7 f9                	idiv   ecx
  401ac4:	8b c8                	mov    ecx,eax
  401ac6:	8b 43 40             	mov    eax,DWORD PTR [ebx+0x40]
  401ac9:	83 e8 20             	sub    eax,0x20
  401acc:	0f af c8             	imul   ecx,eax
  401acf:	03 4b 13             	add    ecx,DWORD PTR [ebx+0x13]
  401ad2:	79 02                	jns    0x401ad6
  401ad4:	33 c9                	xor    ecx,ecx
  401ad6:	3b cf                	cmp    ecx,edi
  401ad8:	7e 02                	jle    0x401adc
  401ada:	8b cf                	mov    ecx,edi
  401adc:	85 f6                	test   esi,esi
  401ade:	74 22                	je     0x401b02
  401ae0:	8b 46 0c             	mov    eax,DWORD PTR [esi+0xc]
  401ae3:	bf ff 00 00 00       	mov    edi,0xff
  401ae8:	0f af c1             	imul   eax,ecx
  401aeb:	99                   	cdq    
  401aec:	f7 ff                	idiv   edi
  401aee:	89 4e 10             	mov    DWORD PTR [esi+0x10],ecx
  401af1:	89 46 1c             	mov    DWORD PTR [esi+0x1c],eax
  401af4:	8b c7                	mov    eax,edi
  401af6:	2b c1                	sub    eax,ecx
  401af8:	0f af 46 0c          	imul   eax,DWORD PTR [esi+0xc]
  401afc:	99                   	cdq    
  401afd:	f7 ff                	idiv   edi
  401aff:	89 46 20             	mov    DWORD PTR [esi+0x20],eax
  401b02:	f6 43 02 01          	test   BYTE PTR [ebx+0x2],0x1
  401b06:	74 65                	je     0x401b6d
  401b08:	8b 45 10             	mov    eax,DWORD PTR [ebp+0x10]
  401b0b:	f6 40 20 01          	test   BYTE PTR [eax+0x20],0x1
  401b0f:	74 22                	je     0x401b33
  401b11:	db 43 0b             	fild   DWORD PTR [ebx+0xb]
  401b14:	d8 2d 4c 10 40 00    	fsubr  DWORD PTR ds:0x40104c
  401b1a:	da 43 1b             	fiadd  DWORD PTR [ebx+0x1b]
  401b1d:	d8 0d 50 10 40 00    	fmul   DWORD PTR ds:0x401050
  401b23:	e8 a8 fd ff ff       	call   0x4018d0
  401b28:	d8 0d 54 10 40 00    	fmul   DWORD PTR ds:0x401054
  401b2e:	db 5d 10             	fistp  DWORD PTR [ebp+0x10]
  401b31:	eb 11                	jmp    0x401b44
  401b33:	8b 4b 0b             	mov    ecx,DWORD PTR [ebx+0xb]
  401b36:	b8 00 76 da 00       	mov    eax,0xda7600
  401b3b:	03 4b 1b             	add    ecx,DWORD PTR [ebx+0x1b]
  401b3e:	99                   	cdq    
  401b3f:	f7 f9                	idiv   ecx
  401b41:	89 45 10             	mov    DWORD PTR [ebp+0x10],eax
  401b44:	8b 4d 10             	mov    ecx,DWORD PTR [ebp+0x10]
  401b47:	6a 64                	push   0x64
  401b49:	58                   	pop    eax
  401b4a:	89 4e 08             	mov    DWORD PTR [esi+0x8],ecx
  401b4d:	3b c8                	cmp    ecx,eax
  401b4f:	7d 03                	jge    0x401b54
  401b51:	89 45 10             	mov    DWORD PTR [ebp+0x10],eax
  401b54:	8b 4d f4             	mov    ecx,DWORD PTR [ebp-0xc]
  401b57:	bb 44 ac 00 00       	mov    ebx,0xac44
  401b5c:	8b 45 10             	mov    eax,DWORD PTR [ebp+0x10]
  401b5f:	99                   	cdq    
  401b60:	f7 f3                	div    ebx
  401b62:	89 41 30             	mov    DWORD PTR [ecx+0x30],eax
  401b65:	f7 f3                	div    ebx
  401b67:	89 41 2c             	mov    DWORD PTR [ecx+0x2c],eax
  401b6a:	8b 5d 08             	mov    ebx,DWORD PTR [ebp+0x8]
  401b6d:	f6 43 02 20          	test   BYTE PTR [ebx+0x2],0x20
  401b71:	74 0b                	je     0x401b7e
  401b73:	33 c0                	xor    eax,eax
  401b75:	89 46 28             	mov    DWORD PTR [esi+0x28],eax
  401b78:	89 46 24             	mov    DWORD PTR [esi+0x24],eax
  401b7b:	89 46 14             	mov    DWORD PTR [esi+0x14],eax
  401b7e:	5f                   	pop    edi
  401b7f:	5e                   	pop    esi
  401b80:	5b                   	pop    ebx
  401b81:	c9                   	leave  
  401b82:	c3                   	ret


    
  401b83:	8b 4c 24 08          	mov    ecx,DWORD PTR [esp+0x8]
  401b87:	8b 44 24 04          	mov    eax,DWORD PTR [esp+0x4]
  401b8b:	53                   	push   ebx
  401b8c:	0f b6 51 10          	movzx  edx,BYTE PTR [ecx+0x10]
  401b90:	89 50 0f             	mov    DWORD PTR [eax+0xf],edx
  401b93:	8a 50 7f             	mov    dl,BYTE PTR [eax+0x7f]
  401b96:	8b 49 12             	mov    ecx,DWORD PTR [ecx+0x12]
  401b99:	8a da                	mov    bl,dl
  401b9b:	89 48 13             	mov    DWORD PTR [eax+0x13],ecx
  401b9e:	80 e3 0f             	and    bl,0xf
  401ba1:	33 c9                	xor    ecx,ecx
  401ba3:	80 fb 04             	cmp    bl,0x4
  401ba6:	c7 40 2b 40 00 00 00 	mov    DWORD PTR [eax+0x2b],0x40
  401bad:	89 48 23             	mov    DWORD PTR [eax+0x23],ecx
  401bb0:	89 48 1f             	mov    DWORD PTR [eax+0x1f],ecx
  401bb3:	89 48 2f             	mov    DWORD PTR [eax+0x2f],ecx
  401bb6:	c7 40 40 20 00 00 00 	mov    DWORD PTR [eax+0x40],0x20
  401bbd:	89 48 38             	mov    DWORD PTR [eax+0x38],ecx
  401bc0:	89 48 34             	mov    DWORD PTR [eax+0x34],ecx
  401bc3:	89 48 44             	mov    DWORD PTR [eax+0x44],ecx
  401bc6:	88 48 55             	mov    BYTE PTR [eax+0x55],cl
  401bc9:	c7 40 49 00 00 01 00 	mov    DWORD PTR [eax+0x49],0x10000
  401bd0:	88 48 33             	mov    BYTE PTR [eax+0x33],cl
  401bd3:	88 48 48             	mov    BYTE PTR [eax+0x48],cl
  401bd6:	89 48 51             	mov    DWORD PTR [eax+0x51],ecx
  401bd9:	89 48 4d             	mov    DWORD PTR [eax+0x4d],ecx
  401bdc:	5b                   	pop    ebx
  401bdd:	73 03                	jae    0x401be2
  401bdf:	88 48 6e             	mov    BYTE PTR [eax+0x6e],cl
  401be2:	0f b6 d2             	movzx  edx,dl
  401be5:	83 e2 f0             	and    edx,0xfffffff0
  401be8:	83 fa 40             	cmp    edx,0x40
  401beb:	7d 03                	jge    0x401bf0
  401bed:	88 48 71             	mov    BYTE PTR [eax+0x71],cl
  401bf0:	80 48 02 06          	or     BYTE PTR [eax+0x2],0x6
  401bf4:	88 48 74             	mov    BYTE PTR [eax+0x74],cl
  401bf7:	c3                   	ret


    
  401bf8:	55                   	push   ebp
  401bf9:	8b ec                	mov    ebp,esp
  401bfb:	83 ec 28             	sub    esp,0x28
  401bfe:	53                   	push   ebx
  401bff:	8b 5d 08             	mov    ebx,DWORD PTR [ebp+0x8]
  401c02:	80 65 fc 00          	and    BYTE PTR [ebp-0x4],0x0
  401c06:	56                   	push   esi
  401c07:	0f bf 53 1c          	movsx  edx,WORD PTR [ebx+0x1c]
  401c0b:	8b 83 36 01 00 00    	mov    eax,DWORD PTR [ebx+0x136]
  401c11:	83 8b 42 01 00 00 ff 	or     DWORD PTR [ebx+0x142],0xffffffff
  401c18:	83 8b 3e 01 00 00 ff 	or     DWORD PTR [ebx+0x13e],0xffffffff
  401c1f:	8b 33                	mov    esi,DWORD PTR [ebx]
  401c21:	0f b6 4c 18 26       	movzx  ecx,BYTE PTR [eax+ebx*1+0x26]
  401c26:	8b c2                	mov    eax,edx
  401c28:	0f af 83 32 01 00 00 	imul   eax,DWORD PTR [ebx+0x132]
  401c2f:	8b 4c ce 04          	mov    ecx,DWORD PTR [esi+ecx*8+0x4]
  401c33:	8d 04 80             	lea    eax,[eax+eax*4]
  401c36:	03 c8                	add    ecx,eax
  401c38:	89 4d f0             	mov    DWORD PTR [ebp-0x10],ecx
  401c3b:	0f 84 23 07 00 00    	je     0x402364
  401c41:	83 65 ec 00          	and    DWORD PTR [ebp-0x14],0x0
  401c45:	85 d2                	test   edx,edx
  401c47:	0f 8e 17 07 00 00    	jle    0x402364
  401c4d:	57                   	push   edi
  401c4e:	eb 03                	jmp    0x401c53
  401c50:	8b 4d f0             	mov    ecx,DWORD PTR [ebp-0x10]
  401c53:	8b 75 ec             	mov    esi,DWORD PTR [ebp-0x14]
  401c56:	8a 41 04             	mov    al,BYTE PTR [ecx+0x4]
  401c59:	69 f6 83 00 00 00    	imul   esi,esi,0x83
  401c5f:	8a d0                	mov    dl,al
  401c61:	24 0f                	and    al,0xf
  401c63:	c0 ea 04             	shr    dl,0x4
  401c66:	88 55 fe             	mov    BYTE PTR [ebp-0x2],dl
  401c69:	8a d0                	mov    dl,al
  401c6b:	8a 41 03             	mov    al,BYTE PTR [ecx+0x3]
  401c6e:	81 c6 00 8f 40 00    	add    esi,0x408f00
  401c74:	3c 03                	cmp    al,0x3
  401c76:	88 55 ff             	mov    BYTE PTR [ebp-0x1],dl
  401c79:	74 0a                	je     0x401c85
  401c7b:	3c 05                	cmp    al,0x5
  401c7d:	74 06                	je     0x401c85
  401c7f:	80 65 fd 00          	and    BYTE PTR [ebp-0x3],0x0
  401c83:	eb 04                	jmp    0x401c89
  401c85:	c6 45 fd 01          	mov    BYTE PTR [ebp-0x3],0x1
  401c89:	8a 41 01             	mov    al,BYTE PTR [ecx+0x1]
  401c8c:	84 c0                	test   al,al
  401c8e:	88 45 fb             	mov    BYTE PTR [ebp-0x5],al
  401c91:	74 0b                	je     0x401c9e
  401c93:	80 7d fd 00          	cmp    BYTE PTR [ebp-0x3],0x0
  401c97:	75 05                	jne    0x401c9e
  401c99:	fe c8                	dec    al
  401c9b:	88 46 56             	mov    BYTE PTR [esi+0x56],al
  401c9e:	8a 01                	mov    al,BYTE PTR [ecx]
  401ca0:	84 c0                	test   al,al
  401ca2:	74 11                	je     0x401cb5
  401ca4:	3c ff                	cmp    al,0xff
  401ca6:	74 0d                	je     0x401cb5
  401ca8:	80 7d fd 00          	cmp    BYTE PTR [ebp-0x3],0x0
  401cac:	75 04                	jne    0x401cb2
  401cae:	fe c8                	dec    al
  401cb0:	88 06                	mov    BYTE PTR [esi],al
  401cb2:	8a 55 ff             	mov    dl,BYTE PTR [ebp-0x1]
  401cb5:	8a 46 56             	mov    al,BYTE PTR [esi+0x56]
  401cb8:	66 0f b6 f8          	movzx  di,al
  401cbc:	66 3b 7b 1e          	cmp    di,WORD PTR [ebx+0x1e]
  401cc0:	7c 15                	jl     0x401cd7
  401cc2:	83 25 c0 8e 40 00 00 	and    DWORD PTR ds:0x408ec0,0x0
  401cc9:	bf a0 8d 40 00       	mov    edi,0x408da0
  401cce:	c7 45 f4 c0 8e 40 00 	mov    DWORD PTR [ebp-0xc],0x408ec0
  401cd5:	eb 36                	jmp    0x401d0d
  401cd7:	0f b6 f8             	movzx  edi,al
  401cda:	69 ff 14 01 00 00    	imul   edi,edi,0x114
  401ce0:	0f b6 06             	movzx  eax,BYTE PTR [esi]
  401ce3:	03 7b 04             	add    edi,DWORD PTR [ebx+0x4]
  401ce6:	8a 44 38 44          	mov    al,BYTE PTR [eax+edi*1+0x44]
  401cea:	3c 10                	cmp    al,0x10
  401cec:	72 09                	jb     0x401cf7
  401cee:	c7 45 f4 c0 8e 40 00 	mov    DWORD PTR [ebp-0xc],0x408ec0
  401cf5:	eb 0a                	jmp    0x401d01
  401cf7:	0f b6 c0             	movzx  eax,al
  401cfa:	8b 44 87 04          	mov    eax,DWORD PTR [edi+eax*4+0x4]
  401cfe:	89 45 f4             	mov    DWORD PTR [ebp-0xc],eax
  401d01:	80 7d fd 00          	cmp    BYTE PTR [ebp-0x3],0x0
  401d05:	75 06                	jne    0x401d0d
  401d07:	8b 45 f4             	mov    eax,DWORD PTR [ebp-0xc]
  401d0a:	89 46 07             	mov    DWORD PTR [esi+0x7],eax
  401d0d:	8b 46 0f             	mov    eax,DWORD PTR [esi+0xf]
  401d10:	80 7e 5c 07          	cmp    BYTE PTR [esi+0x5c],0x7
  401d14:	89 45 e8             	mov    DWORD PTR [ebp-0x18],eax
  401d17:	8b 46 0b             	mov    eax,DWORD PTR [esi+0xb]
  401d1a:	89 45 dc             	mov    DWORD PTR [ebp-0x24],eax
  401d1d:	8b 46 13             	mov    eax,DWORD PTR [esi+0x13]
  401d20:	89 45 d8             	mov    DWORD PTR [ebp-0x28],eax
  401d23:	75 12                	jne    0x401d37
  401d25:	80 79 03 07          	cmp    BYTE PTR [ecx+0x3],0x7
  401d29:	74 0c                	je     0x401d37
  401d2b:	8b 46 17             	mov    eax,DWORD PTR [esi+0x17]
  401d2e:	8a 55 ff             	mov    dl,BYTE PTR [ebp-0x1]
  401d31:	03 45 e8             	add    eax,DWORD PTR [ebp-0x18]
  401d34:	89 46 0f             	mov    DWORD PTR [esi+0xf],eax
  401d37:	8a 41 03             	mov    al,BYTE PTR [ecx+0x3]
  401d3a:	88 46 5c             	mov    BYTE PTR [esi+0x5c],al
  401d3d:	83 66 17 00          	and    DWORD PTR [esi+0x17],0x0
  401d41:	80 66 02 00          	and    BYTE PTR [esi+0x2],0x0
  401d45:	8a 01                	mov    al,BYTE PTR [ecx]
  401d47:	84 c0                	test   al,al
  401d49:	74 5d                	je     0x401da8
  401d4b:	3c ff                	cmp    al,0xff
  401d4d:	74 59                	je     0x401da8
  401d4f:	8b 4d f4             	mov    ecx,DWORD PTR [ebp-0xc]
  401d52:	8a 49 18             	mov    cl,BYTE PTR [ecx+0x18]
  401d55:	02 c8                	add    cl,al
  401d57:	8b 45 f4             	mov    eax,DWORD PTR [ebp-0xc]
  401d5a:	fe c9                	dec    cl
  401d5c:	88 4e 57             	mov    BYTE PTR [esi+0x57],cl
  401d5f:	f6 43 20 01          	test   BYTE PTR [ebx+0x20],0x1
  401d63:	0f be 40 11          	movsx  eax,BYTE PTR [eax+0x11]
  401d67:	74 1a                	je     0x401d83
  401d69:	0f b6 c9             	movzx  ecx,cl
  401d6c:	99                   	cdq    
  401d6d:	2b c2                	sub    eax,edx
  401d6f:	f7 d9                	neg    ecx
  401d71:	d1 f8                	sar    eax,1
  401d73:	c1 e1 06             	shl    ecx,0x6
  401d76:	2b c8                	sub    ecx,eax
  401d78:	81 c1 00 1e 00 00    	add    ecx,0x1e00
  401d7e:	89 4e 58             	mov    DWORD PTR [esi+0x58],ecx
  401d81:	eb 0f                	jmp    0x401d92
  401d83:	50                   	push   eax
  401d84:	0f b6 c1             	movzx  eax,cl
  401d87:	50                   	push   eax
  401d88:	e8 62 fb ff ff       	call   0x4018ef
  401d8d:	59                   	pop    ecx
  401d8e:	89 46 58             	mov    DWORD PTR [esi+0x58],eax
  401d91:	59                   	pop    ecx
  401d92:	80 7d fd 00          	cmp    BYTE PTR [ebp-0x3],0x0
  401d96:	75 06                	jne    0x401d9e
  401d98:	8b 46 58             	mov    eax,DWORD PTR [esi+0x58]
  401d9b:	89 46 0b             	mov    DWORD PTR [esi+0xb],eax
  401d9e:	8b 4d f0             	mov    ecx,DWORD PTR [ebp-0x10]
  401da1:	8a 55 ff             	mov    dl,BYTE PTR [ebp-0x1]
  401da4:	c6 46 02 08          	mov    BYTE PTR [esi+0x2],0x8
  401da8:	83 66 1b 00          	and    DWORD PTR [esi+0x1b],0x0
  401dac:	80 4e 02 03          	or     BYTE PTR [esi+0x2],0x3
  401db0:	80 79 01 00          	cmp    BYTE PTR [ecx+0x1],0x0
  401db4:	74 11                	je     0x401dc7
  401db6:	ff 75 f4             	push   DWORD PTR [ebp-0xc]
  401db9:	56                   	push   esi
  401dba:	e8 c4 fd ff ff       	call   0x401b83
  401dbf:	8a 55 ff             	mov    dl,BYTE PTR [ebp-0x1]
  401dc2:	59                   	pop    ecx
  401dc3:	59                   	pop    ecx
  401dc4:	8b 4d f0             	mov    ecx,DWORD PTR [ebp-0x10]
  401dc7:	8a 41 02             	mov    al,BYTE PTR [ecx+0x2]
  401dca:	84 c0                	test   al,al
  401dcc:	74 0f                	je     0x401ddd
  401dce:	50                   	push   eax
  401dcf:	56                   	push   esi
  401dd0:	e8 11 fa ff ff       	call   0x4017e6
  401dd5:	8a 55 ff             	mov    dl,BYTE PTR [ebp-0x1]
  401dd8:	59                   	pop    ecx
  401dd9:	59                   	pop    ecx
  401dda:	8b 4d f0             	mov    ecx,DWORD PTR [ebp-0x10]
  401ddd:	80 39 ff             	cmp    BYTE PTR [ecx],0xff
  401de0:	74 06                	je     0x401de8
  401de2:	80 79 03 14          	cmp    BYTE PTR [ecx+0x3],0x14
  401de6:	75 04                	jne    0x401dec
  401de8:	c6 46 55 01          	mov    BYTE PTR [esi+0x55],0x1
  401dec:	8a 87 0c 01 00 00    	mov    al,BYTE PTR [edi+0x10c]
  401df2:	a8 01                	test   al,0x1
  401df4:	88 45 e4             	mov    BYTE PTR [ebp-0x1c],al
  401df7:	74 58                	je     0x401e51
  401df9:	80 7e 33 00          	cmp    BYTE PTR [esi+0x33],0x0
  401dfd:	8d 46 33             	lea    eax,[esi+0x33]
  401e00:	75 59                	jne    0x401e5b
  401e02:	8d 4e 2f             	lea    ecx,[esi+0x2f]
  401e05:	6a 02                	push   0x2
  401e07:	51                   	push   ecx
  401e08:	50                   	push   eax
  401e09:	8d 46 27             	lea    eax,[esi+0x27]
  401e0c:	50                   	push   eax
  401e0d:	8d 46 2b             	lea    eax,[esi+0x2b]
  401e10:	50                   	push   eax
  401e11:	8a 87 06 01 00 00    	mov    al,BYTE PTR [edi+0x106]
  401e17:	50                   	push   eax
  401e18:	8a 87 07 01 00 00    	mov    al,BYTE PTR [edi+0x107]
  401e1e:	50                   	push   eax
  401e1f:	8a 87 08 01 00 00    	mov    al,BYTE PTR [edi+0x108]
  401e25:	50                   	push   eax
  401e26:	8d 87 a4 00 00 00    	lea    eax,[edi+0xa4]
  401e2c:	50                   	push   eax
  401e2d:	0f b6 87 04 01 00 00 	movzx  eax,BYTE PTR [edi+0x104]
  401e34:	50                   	push   eax
  401e35:	8d 46 1f             	lea    eax,[esi+0x1f]
  401e38:	ff 75 e4             	push   DWORD PTR [ebp-0x1c]
  401e3b:	50                   	push   eax
  401e3c:	8d 46 23             	lea    eax,[esi+0x23]
  401e3f:	50                   	push   eax
  401e40:	56                   	push   esi
  401e41:	e8 a7 f8 ff ff       	call   0x4016ed
  401e46:	8b 4d f0             	mov    ecx,DWORD PTR [ebp-0x10]
  401e49:	8a 55 ff             	mov    dl,BYTE PTR [ebp-0x1]
  401e4c:	83 c4 38             	add    esp,0x38
  401e4f:	eb 0a                	jmp    0x401e5b
  401e51:	80 7e 55 00          	cmp    BYTE PTR [esi+0x55],0x0
  401e55:	74 04                	je     0x401e5b
  401e57:	83 66 2b 00          	and    DWORD PTR [esi+0x2b],0x0
  401e5b:	8a 87 0d 01 00 00    	mov    al,BYTE PTR [edi+0x10d]
  401e61:	a8 01                	test   al,0x1
  401e63:	88 45 e0             	mov    BYTE PTR [ebp-0x20],al
  401e66:	74 56                	je     0x401ebe
  401e68:	80 7e 48 00          	cmp    BYTE PTR [esi+0x48],0x0
  401e6c:	8d 46 48             	lea    eax,[esi+0x48]
  401e6f:	75 4d                	jne    0x401ebe
  401e71:	8d 4e 44             	lea    ecx,[esi+0x44]
  401e74:	6a 04                	push   0x4
  401e76:	51                   	push   ecx
  401e77:	50                   	push   eax
  401e78:	8d 46 3c             	lea    eax,[esi+0x3c]
  401e7b:	50                   	push   eax
  401e7c:	8d 46 40             	lea    eax,[esi+0x40]
  401e7f:	50                   	push   eax
  401e80:	8a 87 09 01 00 00    	mov    al,BYTE PTR [edi+0x109]
  401e86:	50                   	push   eax
  401e87:	8a 87 0a 01 00 00    	mov    al,BYTE PTR [edi+0x10a]
  401e8d:	50                   	push   eax
  401e8e:	8a 87 0b 01 00 00    	mov    al,BYTE PTR [edi+0x10b]
  401e94:	50                   	push   eax
  401e95:	8d 87 d4 00 00 00    	lea    eax,[edi+0xd4]
  401e9b:	50                   	push   eax
  401e9c:	0f b6 87 05 01 00 00 	movzx  eax,BYTE PTR [edi+0x105]
  401ea3:	50                   	push   eax
  401ea4:	8d 46 34             	lea    eax,[esi+0x34]
  401ea7:	ff 75 e0             	push   DWORD PTR [ebp-0x20]
  401eaa:	50                   	push   eax
  401eab:	8d 46 38             	lea    eax,[esi+0x38]
  401eae:	50                   	push   eax
  401eaf:	56                   	push   esi
  401eb0:	e8 38 f8 ff ff       	call   0x4016ed
  401eb5:	8b 4d f0             	mov    ecx,DWORD PTR [ebp-0x10]
  401eb8:	8a 55 ff             	mov    dl,BYTE PTR [ebp-0x1]
  401ebb:	83 c4 38             	add    esp,0x38
  401ebe:	80 7e 55 00          	cmp    BYTE PTR [esi+0x55],0x0
  401ec2:	74 14                	je     0x401ed8
  401ec4:	0f b7 87 12 01 00 00 	movzx  eax,WORD PTR [edi+0x112]
  401ecb:	29 46 49             	sub    DWORD PTR [esi+0x49],eax
  401ece:	79 04                	jns    0x401ed4
  401ed0:	83 66 49 00          	and    DWORD PTR [esi+0x49],0x0
  401ed4:	80 4e 02 02          	or     BYTE PTR [esi+0x2],0x2
  401ed8:	0f b6 41 03          	movzx  eax,BYTE PTR [ecx+0x3]
  401edc:	83 f8 15             	cmp    eax,0x15
  401edf:	0f 8f dd 03 00 00    	jg     0x4022c2
  401ee5:	0f 84 0b 03 00 00    	je     0x4021f6
  401eeb:	48                   	dec    eax
  401eec:	83 f8 10             	cmp    eax,0x10
  401eef:	0f 87 46 04 00 00    	ja     0x40233b
  401ef5:	ff 24 85 68 23 40 00 	jmp    DWORD PTR [eax*4+0x402368]
  401efc:	8a 49 04             	mov    cl,BYTE PTR [ecx+0x4]
  401eff:	84 c9                	test   cl,cl
  401f01:	0f 84 34 04 00 00    	je     0x40233b
  401f07:	88 4e 62             	mov    BYTE PTR [esi+0x62],cl
  401f0a:	e9 2c 04 00 00       	jmp    0x40233b
  401f0f:	8a 49 04             	mov    cl,BYTE PTR [ecx+0x4]
  401f12:	84 c9                	test   cl,cl
  401f14:	0f 84 21 04 00 00    	je     0x40233b
  401f1a:	88 4e 61             	mov    BYTE PTR [esi+0x61],cl
  401f1d:	e9 19 04 00 00       	jmp    0x40233b
  401f22:	8a 49 04             	mov    cl,BYTE PTR [ecx+0x4]
  401f25:	84 c9                	test   cl,cl
  401f27:	74 03                	je     0x401f2c
  401f29:	88 4e 6d             	mov    BYTE PTR [esi+0x6d],cl
  401f2c:	8b 46 58             	mov    eax,DWORD PTR [esi+0x58]
  401f2f:	89 46 69             	mov    DWORD PTR [esi+0x69],eax
  401f32:	eb 10                	jmp    0x401f44
  401f34:	8b 46 58             	mov    eax,DWORD PTR [esi+0x58]
  401f37:	89 46 69             	mov    DWORD PTR [esi+0x69],eax
  401f3a:	8a 49 04             	mov    cl,BYTE PTR [ecx+0x4]
  401f3d:	84 c9                	test   cl,cl
  401f3f:	74 03                	je     0x401f44
  401f41:	88 4e 65             	mov    BYTE PTR [esi+0x65],cl
  401f44:	80 66 02 f6          	and    BYTE PTR [esi+0x2],0xf6
  401f48:	e9 ee 03 00 00       	jmp    0x40233b
  401f4d:	8a 45 fe             	mov    al,BYTE PTR [ebp-0x2]
  401f50:	84 c0                	test   al,al
  401f52:	74 03                	je     0x401f57
  401f54:	88 46 6f             	mov    BYTE PTR [esi+0x6f],al
  401f57:	84 d2                	test   dl,dl
  401f59:	74 03                	je     0x401f5e
  401f5b:	88 56 70             	mov    BYTE PTR [esi+0x70],dl
  401f5e:	56                   	push   esi
  401f5f:	e8 42 f5 ff ff       	call   0x4014a6
  401f64:	e9 b0 03 00 00       	jmp    0x402319
  401f69:	8a 49 04             	mov    cl,BYTE PTR [ecx+0x4]
  401f6c:	84 c9                	test   cl,cl
  401f6e:	74 ee                	je     0x401f5e
  401f70:	88 4e 65             	mov    BYTE PTR [esi+0x65],cl
  401f73:	eb e9                	jmp    0x401f5e
  401f75:	8a 45 fe             	mov    al,BYTE PTR [ebp-0x2]
  401f78:	84 c0                	test   al,al
  401f7a:	74 03                	je     0x401f7f
  401f7c:	88 46 72             	mov    BYTE PTR [esi+0x72],al
  401f7f:	84 d2                	test   dl,dl
  401f81:	0f 84 b4 03 00 00    	je     0x40233b
  401f87:	88 56 73             	mov    BYTE PTR [esi+0x73],dl
  401f8a:	e9 ac 03 00 00       	jmp    0x40233b
  401f8f:	0f b6 41 04          	movzx  eax,BYTE PTR [ecx+0x4]
  401f93:	e9 89 01 00 00       	jmp    0x402121
  401f98:	8a 49 04             	mov    cl,BYTE PTR [ecx+0x4]
  401f9b:	84 c9                	test   cl,cl
  401f9d:	74 06                	je     0x401fa5
  401f9f:	0f b6 c1             	movzx  eax,cl
  401fa2:	89 46 5d             	mov    DWORD PTR [esi+0x5d],eax
  401fa5:	83 7e 03 00          	cmp    DWORD PTR [esi+0x3],0x0
  401fa9:	0f 84 8c 03 00 00    	je     0x40233b
  401faf:	8b 4d f4             	mov    ecx,DWORD PTR [ebp-0xc]
  401fb2:	8b 46 5d             	mov    eax,DWORD PTR [esi+0x5d]
  401fb5:	c1 e0 08             	shl    eax,0x8
  401fb8:	8b 51 0c             	mov    edx,DWORD PTR [ecx+0xc]
  401fbb:	03 51 08             	add    edx,DWORD PTR [ecx+0x8]
  401fbe:	3b c2                	cmp    eax,edx
  401fc0:	72 0f                	jb     0x401fd1
  401fc2:	8a 46 02             	mov    al,BYTE PTR [esi+0x2]
  401fc5:	24 f7                	and    al,0xf7
  401fc7:	0c 20                	or     al,0x20
  401fc9:	88 46 02             	mov    BYTE PTR [esi+0x2],al
  401fcc:	e9 6a 03 00 00       	jmp    0x40233b
  401fd1:	8b 4e 03             	mov    ecx,DWORD PTR [esi+0x3]
  401fd4:	89 41 14             	mov    DWORD PTR [ecx+0x14],eax
  401fd7:	e9 5f 03 00 00       	jmp    0x40233b
  401fdc:	8a 49 04             	mov    cl,BYTE PTR [ecx+0x4]
  401fdf:	84 c9                	test   cl,cl
  401fe1:	0f 84 54 03 00 00    	je     0x40233b
  401fe7:	88 4e 65             	mov    BYTE PTR [esi+0x65],cl
  401fea:	e9 4c 03 00 00       	jmp    0x40233b
  401fef:	0f b6 41 04          	movzx  eax,BYTE PTR [ecx+0x4]
  401ff3:	83 a3 3e 01 00 00 00 	and    DWORD PTR [ebx+0x13e],0x0
  401ffa:	89 83 42 01 00 00    	mov    DWORD PTR [ebx+0x142],eax
  402000:	0f bf 43 18          	movsx  eax,WORD PTR [ebx+0x18]
  402004:	39 83 42 01 00 00    	cmp    DWORD PTR [ebx+0x142],eax
  40200a:	7c 07                	jl     0x402013
  40200c:	83 a3 42 01 00 00 00 	and    DWORD PTR [ebx+0x142],0x0
  402013:	c6 45 fc 01          	mov    BYTE PTR [ebp-0x4],0x1
  402017:	e9 1f 03 00 00       	jmp    0x40233b
  40201c:	0f b6 41 04          	movzx  eax,BYTE PTR [ecx+0x4]
  402020:	e9 20 01 00 00       	jmp    0x402145
  402025:	0f b6 4d fe          	movzx  ecx,BYTE PTR [ebp-0x2]
  402029:	8d 04 89             	lea    eax,[ecx+ecx*4]
  40202c:	0f b6 ca             	movzx  ecx,dl
  40202f:	8d 04 41             	lea    eax,[ecx+eax*2]
  402032:	83 f8 3f             	cmp    eax,0x3f
  402035:	89 83 3e 01 00 00    	mov    DWORD PTR [ebx+0x13e],eax
  40203b:	7e 07                	jle    0x402044
  40203d:	83 a3 3e 01 00 00 00 	and    DWORD PTR [ebx+0x13e],0x0
  402044:	80 7d fc 00          	cmp    BYTE PTR [ebp-0x4],0x0
  402048:	75 0d                	jne    0x402057
  40204a:	8b 83 36 01 00 00    	mov    eax,DWORD PTR [ebx+0x136]
  402050:	40                   	inc    eax
  402051:	89 83 42 01 00 00    	mov    DWORD PTR [ebx+0x142],eax
  402057:	0f bf 43 18          	movsx  eax,WORD PTR [ebx+0x18]
  40205b:	39 83 42 01 00 00    	cmp    DWORD PTR [ebx+0x142],eax
  402061:	0f 8c d4 02 00 00    	jl     0x40233b
  402067:	83 a3 42 01 00 00 00 	and    DWORD PTR [ebx+0x142],0x0
  40206e:	e9 c8 02 00 00       	jmp    0x40233b
  402073:	0f b6 45 fe          	movzx  eax,BYTE PTR [ebp-0x2]
  402077:	48                   	dec    eax
  402078:	83 f8 0d             	cmp    eax,0xd
  40207b:	0f 87 ba 02 00 00    	ja     0x40233b
  402081:	ff 24 85 ac 23 40 00 	jmp    DWORD PTR [eax*4+0x4023ac]
  402088:	84 d2                	test   dl,dl
  40208a:	74 06                	je     0x402092
  40208c:	88 96 81 00 00 00    	mov    BYTE PTR [esi+0x81],dl
  402092:	0f b6 86 81 00 00 00 	movzx  eax,BYTE PTR [esi+0x81]
  402099:	c1 e0 02             	shl    eax,0x2
  40209c:	e9 44 02 00 00       	jmp    0x4022e5
  4020a1:	84 d2                	test   dl,dl
  4020a3:	74 06                	je     0x4020ab
  4020a5:	88 96 82 00 00 00    	mov    BYTE PTR [esi+0x82],dl
  4020ab:	0f b6 86 82 00 00 00 	movzx  eax,BYTE PTR [esi+0x82]
  4020b2:	c1 e0 02             	shl    eax,0x2
  4020b5:	01 46 0b             	add    DWORD PTR [esi+0xb],eax
  4020b8:	e9 7e 02 00 00       	jmp    0x40233b
  4020bd:	8a 46 7f             	mov    al,BYTE PTR [esi+0x7f]
  4020c0:	24 f0                	and    al,0xf0
  4020c2:	0a c2                	or     al,dl
  4020c4:	88 46 7f             	mov    BYTE PTR [esi+0x7f],al
  4020c7:	e9 6f 02 00 00       	jmp    0x40233b
  4020cc:	8b 45 f4             	mov    eax,DWORD PTR [ebp-0xc]
  4020cf:	88 50 11             	mov    BYTE PTR [eax+0x11],dl
  4020d2:	e9 64 02 00 00       	jmp    0x40233b
  4020d7:	84 d2                	test   dl,dl
  4020d9:	75 0e                	jne    0x4020e9
  4020db:	8b 83 32 01 00 00    	mov    eax,DWORD PTR [ebx+0x132]
  4020e1:	89 46 77             	mov    DWORD PTR [esi+0x77],eax
  4020e4:	e9 52 02 00 00       	jmp    0x40233b
  4020e9:	8b 46 7b             	mov    eax,DWORD PTR [esi+0x7b]
  4020ec:	8d 4e 7b             	lea    ecx,[esi+0x7b]
  4020ef:	85 c0                	test   eax,eax
  4020f1:	75 05                	jne    0x4020f8
  4020f3:	0f b6 c2             	movzx  eax,dl
  4020f6:	eb 01                	jmp    0x4020f9
  4020f8:	48                   	dec    eax
  4020f9:	85 c0                	test   eax,eax
  4020fb:	89 01                	mov    DWORD PTR [ecx],eax
  4020fd:	0f 84 38 02 00 00    	je     0x40233b
  402103:	8b 46 77             	mov    eax,DWORD PTR [esi+0x77]
  402106:	89 83 3e 01 00 00    	mov    DWORD PTR [ebx+0x13e],eax
  40210c:	e9 2a 02 00 00       	jmp    0x40233b
  402111:	8a 46 7f             	mov    al,BYTE PTR [esi+0x7f]
  402114:	24 0f                	and    al,0xf
  402116:	c0 e2 04             	shl    dl,0x4
  402119:	eb a7                	jmp    0x4020c2
  40211b:	0f b6 c2             	movzx  eax,dl
  40211e:	c1 e0 04             	shl    eax,0x4
  402121:	89 46 13             	mov    DWORD PTR [esi+0x13],eax
  402124:	e9 0e 02 00 00       	jmp    0x402337
  402129:	84 d2                	test   dl,dl
  40212b:	74 06                	je     0x402133
  40212d:	88 96 80 00 00 00    	mov    BYTE PTR [esi+0x80],dl
  402133:	0f b6 86 80 00 00 00 	movzx  eax,BYTE PTR [esi+0x80]
  40213a:	01 46 0f             	add    DWORD PTR [esi+0xf],eax
  40213d:	6a 40                	push   0x40
  40213f:	58                   	pop    eax
  402140:	39 46 0f             	cmp    DWORD PTR [esi+0xf],eax
  402143:	7e 03                	jle    0x402148
  402145:	89 46 0f             	mov    DWORD PTR [esi+0xf],eax
  402148:	80 4e 02 02          	or     BYTE PTR [esi+0x2],0x2
  40214c:	e9 ea 01 00 00       	jmp    0x40233b
  402151:	84 d2                	test   dl,dl
  402153:	74 06                	je     0x40215b
  402155:	88 96 80 00 00 00    	mov    BYTE PTR [esi+0x80],dl
  40215b:	0f b6 86 80 00 00 00 	movzx  eax,BYTE PTR [esi+0x80]
  402162:	29 46 0f             	sub    DWORD PTR [esi+0xf],eax
  402165:	79 e1                	jns    0x402148
  402167:	83 66 0f 00          	and    DWORD PTR [esi+0xf],0x0
  40216b:	eb db                	jmp    0x402148
  40216d:	8b 45 e8             	mov    eax,DWORD PTR [ebp-0x18]
  402170:	89 46 0f             	mov    DWORD PTR [esi+0xf],eax
  402173:	8b 45 dc             	mov    eax,DWORD PTR [ebp-0x24]
  402176:	89 46 0b             	mov    DWORD PTR [esi+0xb],eax
  402179:	8b 45 d8             	mov    eax,DWORD PTR [ebp-0x28]
  40217c:	89 46 13             	mov    DWORD PTR [esi+0x13],eax
  40217f:	80 66 02 f0          	and    BYTE PTR [esi+0x2],0xf0
  402183:	e9 b3 01 00 00       	jmp    0x40233b
  402188:	8b 8b 2e 01 00 00    	mov    ecx,DWORD PTR [ebx+0x12e]
  40218e:	0f b6 c2             	movzx  eax,dl
  402191:	0f af c8             	imul   ecx,eax
  402194:	89 8b 3a 01 00 00    	mov    DWORD PTR [ebx+0x13a],ecx
  40219a:	e9 9c 01 00 00       	jmp    0x40233b
  40219f:	8a 49 04             	mov    cl,BYTE PTR [ecx+0x4]
  4021a2:	80 f9 20             	cmp    cl,0x20
  4021a5:	0f b6 c1             	movzx  eax,cl
  4021a8:	73 0b                	jae    0x4021b5
  4021aa:	89 83 2e 01 00 00    	mov    DWORD PTR [ebx+0x12e],eax
  4021b0:	e9 86 01 00 00       	jmp    0x40233b
  4021b5:	50                   	push   eax
  4021b6:	53                   	push   ebx
  4021b7:	e8 d0 ee ff ff       	call   0x40108c
  4021bc:	59                   	pop    ecx
  4021bd:	e9 57 01 00 00       	jmp    0x402319
  4021c2:	0f b6 49 04          	movzx  ecx,BYTE PTR [ecx+0x4]
  4021c6:	6a 40                	push   0x40
  4021c8:	8d 83 26 01 00 00    	lea    eax,[ebx+0x126]
  4021ce:	5a                   	pop    edx
  4021cf:	3b ca                	cmp    ecx,edx
  4021d1:	89 08                	mov    DWORD PTR [eax],ecx
  4021d3:	0f 8e 6f ff ff ff    	jle    0x402148
  4021d9:	89 10                	mov    DWORD PTR [eax],edx
  4021db:	e9 68 ff ff ff       	jmp    0x402148
  4021e0:	8a 49 04             	mov    cl,BYTE PTR [ecx+0x4]
  4021e3:	84 c9                	test   cl,cl
  4021e5:	0f 84 50 01 00 00    	je     0x40233b
  4021eb:	88 8b 4a 01 00 00    	mov    BYTE PTR [ebx+0x14a],cl
  4021f1:	e9 45 01 00 00       	jmp    0x40233b
  4021f6:	f6 87 0c 01 00 00 01 	test   BYTE PTR [edi+0x10c],0x1
  4021fd:	0f 84 38 01 00 00    	je     0x40233b
  402203:	66 0f b6 49 04       	movzx  cx,BYTE PTR [ecx+0x4]
  402208:	8d 97 a8 00 00 00    	lea    edx,[edi+0xa8]
  40220e:	33 c0                	xor    eax,eax
  402210:	66 3b 0a             	cmp    cx,WORD PTR [edx]
  402213:	76 1b                	jbe    0x402230
  402215:	89 55 e8             	mov    DWORD PTR [ebp-0x18],edx
  402218:	0f b6 97 04 01 00 00 	movzx  edx,BYTE PTR [edi+0x104]
  40221f:	3b c2                	cmp    eax,edx
  402221:	7d 0d                	jge    0x402230
  402223:	83 45 e8 04          	add    DWORD PTR [ebp-0x18],0x4
  402227:	40                   	inc    eax
  402228:	8b 55 e8             	mov    edx,DWORD PTR [ebp-0x18]
  40222b:	66 3b 0a             	cmp    cx,WORD PTR [edx]
  40222e:	77 e8                	ja     0x402218
  402230:	89 46 23             	mov    DWORD PTR [esi+0x23],eax
  402233:	0f b6 8f 04 01 00 00 	movzx  ecx,BYTE PTR [edi+0x104]
  40223a:	8d 51 ff             	lea    edx,[ecx-0x1]
  40223d:	3b c2                	cmp    eax,edx
  40223f:	7c 14                	jl     0x402255
  402241:	0f b7 84 8f a2 00 00 	movzx  eax,WORD PTR [edi+ecx*4+0xa2]
  402248:	00 
  402249:	89 46 2b             	mov    DWORD PTR [esi+0x2b],eax
  40224c:	c6 46 33 01          	mov    BYTE PTR [esi+0x33],0x1
  402250:	e9 e6 00 00 00       	jmp    0x40233b
  402255:	8b 4d f0             	mov    ecx,DWORD PTR [ebp-0x10]
  402258:	80 66 33 00          	and    BYTE PTR [esi+0x33],0x0
  40225c:	8d 58 01             	lea    ebx,[eax+0x1]
  40225f:	0f b6 49 04          	movzx  ecx,BYTE PTR [ecx+0x4]
  402263:	89 4e 1f             	mov    DWORD PTR [esi+0x1f],ecx
  402266:	0f b7 94 87 a4 00 00 	movzx  edx,WORD PTR [edi+eax*4+0xa4]
  40226d:	00 
  40226e:	0f b7 8c 87 a6 00 00 	movzx  ecx,WORD PTR [edi+eax*4+0xa6]
  402275:	00 
  402276:	0f b7 84 9f a4 00 00 	movzx  eax,WORD PTR [edi+ebx*4+0xa4]
  40227d:	00 
  40227e:	c1 e1 10             	shl    ecx,0x10
  402281:	2b c2                	sub    eax,edx
  402283:	89 55 dc             	mov    DWORD PTR [ebp-0x24],edx
  402286:	89 45 d8             	mov    DWORD PTR [ebp-0x28],eax
  402289:	74 16                	je     0x4022a1
  40228b:	0f b7 84 9f a6 00 00 	movzx  eax,WORD PTR [edi+ebx*4+0xa6]
  402292:	00 
  402293:	c1 e0 10             	shl    eax,0x10
  402296:	2b c1                	sub    eax,ecx
  402298:	99                   	cdq    
  402299:	f7 7d d8             	idiv   DWORD PTR [ebp-0x28]
  40229c:	89 46 2f             	mov    DWORD PTR [esi+0x2f],eax
  40229f:	eb 04                	jmp    0x4022a5
  4022a1:	83 66 2f 00          	and    DWORD PTR [esi+0x2f],0x0
  4022a5:	8b 46 1f             	mov    eax,DWORD PTR [esi+0x1f]
  4022a8:	89 5e 23             	mov    DWORD PTR [esi+0x23],ebx
  4022ab:	2b 45 dc             	sub    eax,DWORD PTR [ebp-0x24]
  4022ae:	8b 5d 08             	mov    ebx,DWORD PTR [ebp+0x8]
  4022b1:	0f af 46 2f          	imul   eax,DWORD PTR [esi+0x2f]
  4022b5:	03 c8                	add    ecx,eax
  4022b7:	89 4e 27             	mov    DWORD PTR [esi+0x27],ecx
  4022ba:	c1 f9 10             	sar    ecx,0x10
  4022bd:	89 4e 2b             	mov    DWORD PTR [esi+0x2b],ecx
  4022c0:	eb 79                	jmp    0x40233b
  4022c2:	83 e8 19             	sub    eax,0x19
  4022c5:	74 66                	je     0x40232d
  4022c7:	48                   	dec    eax
  4022c8:	48                   	dec    eax
  4022c9:	74 51                	je     0x40231c
  4022cb:	48                   	dec    eax
  4022cc:	48                   	dec    eax
  4022cd:	74 31                	je     0x402300
  4022cf:	83 e8 04             	sub    eax,0x4
  4022d2:	75 67                	jne    0x40233b
  4022d4:	80 7d fe 01          	cmp    BYTE PTR [ebp-0x2],0x1
  4022d8:	75 10                	jne    0x4022ea
  4022da:	84 d2                	test   dl,dl
  4022dc:	74 03                	je     0x4022e1
  4022de:	88 56 64             	mov    BYTE PTR [esi+0x64],dl
  4022e1:	0f b6 46 64          	movzx  eax,BYTE PTR [esi+0x64]
  4022e5:	29 46 0b             	sub    DWORD PTR [esi+0xb],eax
  4022e8:	eb 51                	jmp    0x40233b
  4022ea:	80 7d fe 02          	cmp    BYTE PTR [ebp-0x2],0x2
  4022ee:	75 4b                	jne    0x40233b
  4022f0:	84 d2                	test   dl,dl
  4022f2:	74 03                	je     0x4022f7
  4022f4:	88 56 63             	mov    BYTE PTR [esi+0x63],dl
  4022f7:	0f b6 46 63          	movzx  eax,BYTE PTR [esi+0x63]
  4022fb:	e9 b5 fd ff ff       	jmp    0x4020b5
  402300:	80 79 04 00          	cmp    BYTE PTR [ecx+0x4],0x0
  402304:	74 0d                	je     0x402313
  402306:	8a 45 fe             	mov    al,BYTE PTR [ebp-0x2]
  402309:	fe c0                	inc    al
  40230b:	fe c2                	inc    dl
  40230d:	88 46 75             	mov    BYTE PTR [esi+0x75],al
  402310:	88 56 76             	mov    BYTE PTR [esi+0x76],dl
  402313:	56                   	push   esi
  402314:	e8 3e f6 ff ff       	call   0x401957
  402319:	59                   	pop    ecx
  40231a:	eb 1f                	jmp    0x40233b
  40231c:	80 79 04 00          	cmp    BYTE PTR [ecx+0x4],0x0
  402320:	74 19                	je     0x40233b
  402322:	8a 45 fe             	mov    al,BYTE PTR [ebp-0x2]
  402325:	88 56 68             	mov    BYTE PTR [esi+0x68],dl
  402328:	88 46 67             	mov    BYTE PTR [esi+0x67],al
  40232b:	eb 0e                	jmp    0x40233b
  40232d:	8a 49 04             	mov    cl,BYTE PTR [ecx+0x4]
  402330:	84 c9                	test   cl,cl
  402332:	74 07                	je     0x40233b
  402334:	88 4e 66             	mov    BYTE PTR [esi+0x66],cl
  402337:	80 4e 02 04          	or     BYTE PTR [esi+0x2],0x4
  40233b:	57                   	push   edi
  40233c:	56                   	push   esi
  40233d:	e8 e3 f1 ff ff       	call   0x401525
  402342:	53                   	push   ebx
  402343:	ff 75 f4             	push   DWORD PTR [ebp-0xc]
  402346:	56                   	push   esi
  402347:	e8 41 f6 ff ff       	call   0x40198d
  40234c:	0f bf 43 1c          	movsx  eax,WORD PTR [ebx+0x1c]
  402350:	83 45 f0 05          	add    DWORD PTR [ebp-0x10],0x5
  402354:	83 c4 14             	add    esp,0x14
  402357:	ff 45 ec             	inc    DWORD PTR [ebp-0x14]
  40235a:	39 45 ec             	cmp    DWORD PTR [ebp-0x14],eax
  40235d:	0f 8c ed f8 ff ff    	jl     0x401c50
  402363:	5f                   	pop    edi
  402364:	5e                   	pop    esi
  402365:	5b                   	pop    ebx
  402366:	c9                   	leave  
  402367:	c3                   	ret


    
  402368:	fc                   	cld    
  402369:	1e                   	push   ds
  40236a:	40                   	inc    eax
  40236b:	00 0f                	add    BYTE PTR [edi],cl
  40236d:	1f                   	pop    ds
  40236e:	40                   	inc    eax
  40236f:	00 22                	add    BYTE PTR [edx],ah
  402371:	1f                   	pop    ds
  402372:	40                   	inc    eax
  402373:	00 4d 1f             	add    BYTE PTR [ebp+0x1f],cl
  402376:	40                   	inc    eax
  402377:	00 34 1f             	add    BYTE PTR [edi+ebx*1],dh
  40237a:	40                   	inc    eax
  40237b:	00 69 1f             	add    BYTE PTR [ecx+0x1f],ch
  40237e:	40                   	inc    eax
  40237f:	00 75 1f             	add    BYTE PTR [ebp+0x1f],dh
  402382:	40                   	inc    eax
  402383:	00 8f 1f 40 00 98    	add    BYTE PTR [edi-0x67ffbfe1],cl
  402389:	1f                   	pop    ds
  40238a:	40                   	inc    eax
  40238b:	00 dc                	add    ah,bl
  40238d:	1f                   	pop    ds
  40238e:	40                   	inc    eax
  40238f:	00 ef                	add    bh,ch
  402391:	1f                   	pop    ds
  402392:	40                   	inc    eax
  402393:	00 1c 20             	add    BYTE PTR [eax+eiz*1],bl
  402396:	40                   	inc    eax
  402397:	00 25 20 40 00 73    	add    BYTE PTR ds:0x73004020,ah
  40239d:	20 40 00             	and    BYTE PTR [eax+0x0],al
  4023a0:	9f                   	lahf   
  4023a1:	21 40 00             	and    DWORD PTR [eax+0x0],eax
  4023a4:	c2 21 40             	ret


    0x4021
  4023a7:	00 e0                	add    al,ah
  4023a9:	21 40 00             	and    DWORD PTR [eax+0x0],eax
  4023ac:	88 20                	mov    BYTE PTR [eax],ah
  4023ae:	40                   	inc    eax
  4023af:	00 a1 20 40 00 3b    	add    BYTE PTR [ecx+0x3b004020],ah
  4023b5:	23 40 00             	and    eax,DWORD PTR [eax+0x0]
  4023b8:	bd 20 40 00 cc       	mov    ebp,0xcc004020
  4023bd:	20 40 00             	and    BYTE PTR [eax+0x0],al
  4023c0:	d7                   	xlat   BYTE PTR ds:[ebx]
  4023c1:	20 40 00             	and    BYTE PTR [eax+0x0],al
  4023c4:	11 21                	adc    DWORD PTR [ecx],esp
  4023c6:	40                   	inc    eax
  4023c7:	00 1b                	add    BYTE PTR [ebx],bl
  4023c9:	21 40 00             	and    DWORD PTR [eax+0x0],eax
  4023cc:	3b 23                	cmp    esp,DWORD PTR [ebx]
  4023ce:	40                   	inc    eax
  4023cf:	00 29                	add    BYTE PTR [ecx],ch
  4023d1:	21 40 00             	and    DWORD PTR [eax+0x0],eax
  4023d4:	51                   	push   ecx
  4023d5:	21 40 00             	and    DWORD PTR [eax+0x0],eax
  4023d8:	3b 23                	cmp    esp,DWORD PTR [ebx]
  4023da:	40                   	inc    eax
  4023db:	00 6d 21             	add    BYTE PTR [ebp+0x21],ch
  4023de:	40                   	inc    eax
  4023df:	00 88 21 40 00 83    	add    BYTE PTR [eax-0x7cffbfdf],cl
  4023e5:	ec                   	in     al,dx
  4023e6:	10 55 8b             	adc    BYTE PTR [ebp-0x75],dl
  4023e9:	6c                   	ins    BYTE PTR es:[edi],dx
  4023ea:	24 18                	and    al,0x18
  4023ec:	56                   	push   esi
  4023ed:	8b 85 36 01 00 00    	mov    eax,DWORD PTR [ebp+0x136]
  4023f3:	8b 75 00             	mov    esi,DWORD PTR [ebp+0x0]
  4023f6:	0f bf 4d 1c          	movsx  ecx,WORD PTR [ebp+0x1c]
  4023fa:	0f b6 54 28 26       	movzx  edx,BYTE PTR [eax+ebp*1+0x26]
  4023ff:	8b 85 32 01 00 00    	mov    eax,DWORD PTR [ebp+0x132]
  402405:	0f af c1             	imul   eax,ecx
  402408:	8b 54 d6 04          	mov    edx,DWORD PTR [esi+edx*8+0x4]
  40240c:	8d 04 80             	lea    eax,[eax+eax*4]
  40240f:	03 d0                	add    edx,eax
  402411:	89 54 24 10          	mov    DWORD PTR [esp+0x10],edx
  402415:	0f 84 f4 05 00 00    	je     0x402a0f
  40241b:	83 64 24 14 00       	and    DWORD PTR [esp+0x14],0x0
  402420:	85 c9                	test   ecx,ecx
  402422:	0f 8e e7 05 00 00    	jle    0x402a0f
  402428:	53                   	push   ebx
  402429:	57                   	push   edi
  40242a:	eb 04                	jmp    0x402430
  40242c:	8b 54 24 18          	mov    edx,DWORD PTR [esp+0x18]
  402430:	8b 74 24 1c          	mov    esi,DWORD PTR [esp+0x1c]
  402434:	b9 c0 8e 40 00       	mov    ecx,0x408ec0
  402439:	69 f6 83 00 00 00    	imul   esi,esi,0x83
  40243f:	81 c6 00 8f 40 00    	add    esi,0x408f00
  402445:	8a 46 56             	mov    al,BYTE PTR [esi+0x56]
  402448:	66 0f b6 f8          	movzx  di,al
  40244c:	66 3b 7d 1e          	cmp    di,WORD PTR [ebp+0x1e]
  402450:	7c 12                	jl     0x402464
  402452:	83 25 c0 8e 40 00 00 	and    DWORD PTR ds:0x408ec0,0x0
  402459:	bf a0 8d 40 00       	mov    edi,0x408da0
  40245e:	89 4c 24 14          	mov    DWORD PTR [esp+0x14],ecx
  402462:	eb 33                	jmp    0x402497
  402464:	0f b6 f8             	movzx  edi,al
  402467:	69 ff 14 01 00 00    	imul   edi,edi,0x114
  40246d:	0f b6 06             	movzx  eax,BYTE PTR [esi]
  402470:	03 7d 04             	add    edi,DWORD PTR [ebp+0x4]
  402473:	8a 44 38 44          	mov    al,BYTE PTR [eax+edi*1+0x44]
  402477:	3c 10                	cmp    al,0x10
  402479:	72 06                	jb     0x402481
  40247b:	89 4c 24 14          	mov    DWORD PTR [esp+0x14],ecx
  40247f:	eb 0b                	jmp    0x40248c
  402481:	0f b6 c0             	movzx  eax,al
  402484:	8b 44 87 04          	mov    eax,DWORD PTR [edi+eax*4+0x4]
  402488:	89 44 24 14          	mov    DWORD PTR [esp+0x14],eax
  40248c:	83 7c 24 14 00       	cmp    DWORD PTR [esp+0x14],0x0
  402491:	75 04                	jne    0x402497
  402493:	89 4c 24 14          	mov    DWORD PTR [esp+0x14],ecx
  402497:	8a 42 03             	mov    al,BYTE PTR [edx+0x3]
  40249a:	88 44 24 13          	mov    BYTE PTR [esp+0x13],al
  40249e:	8a 42 04             	mov    al,BYTE PTR [edx+0x4]
  4024a1:	83 66 17 00          	and    DWORD PTR [esi+0x17],0x0
  4024a5:	83 66 1b 00          	and    DWORD PTR [esi+0x1b],0x0
  4024a9:	80 66 02 00          	and    BYTE PTR [esi+0x2],0x0
  4024ad:	8a d8                	mov    bl,al
  4024af:	24 0f                	and    al,0xf
  4024b1:	88 44 24 24          	mov    BYTE PTR [esp+0x24],al
  4024b5:	8a 87 0c 01 00 00    	mov    al,BYTE PTR [edi+0x10c]
  4024bb:	c0 eb 04             	shr    bl,0x4
  4024be:	a8 01                	test   al,0x1
  4024c0:	74 4e                	je     0x402510
  4024c2:	80 7e 33 00          	cmp    BYTE PTR [esi+0x33],0x0
  4024c6:	8d 4e 33             	lea    ecx,[esi+0x33]
  4024c9:	75 45                	jne    0x402510
  4024cb:	8d 56 2f             	lea    edx,[esi+0x2f]
  4024ce:	6a 02                	push   0x2
  4024d0:	52                   	push   edx
  4024d1:	51                   	push   ecx
  4024d2:	8d 4e 27             	lea    ecx,[esi+0x27]
  4024d5:	51                   	push   ecx
  4024d6:	8d 4e 2b             	lea    ecx,[esi+0x2b]
  4024d9:	51                   	push   ecx
  4024da:	8a 8f 06 01 00 00    	mov    cl,BYTE PTR [edi+0x106]
  4024e0:	51                   	push   ecx
  4024e1:	8a 8f 07 01 00 00    	mov    cl,BYTE PTR [edi+0x107]
  4024e7:	51                   	push   ecx
  4024e8:	8a 8f 08 01 00 00    	mov    cl,BYTE PTR [edi+0x108]
  4024ee:	51                   	push   ecx
  4024ef:	8d 8f a4 00 00 00    	lea    ecx,[edi+0xa4]
  4024f5:	51                   	push   ecx
  4024f6:	0f b6 8f 04 01 00 00 	movzx  ecx,BYTE PTR [edi+0x104]
  4024fd:	51                   	push   ecx
  4024fe:	50                   	push   eax
  4024ff:	8d 46 1f             	lea    eax,[esi+0x1f]
  402502:	50                   	push   eax
  402503:	8d 46 23             	lea    eax,[esi+0x23]
  402506:	50                   	push   eax
  402507:	56                   	push   esi
  402508:	e8 e0 f1 ff ff       	call   0x4016ed
  40250d:	83 c4 38             	add    esp,0x38
  402510:	8a 8f 0d 01 00 00    	mov    cl,BYTE PTR [edi+0x10d]
  402516:	f6 c1 01             	test   cl,0x1
  402519:	74 4e                	je     0x402569
  40251b:	80 7e 48 00          	cmp    BYTE PTR [esi+0x48],0x0
  40251f:	8d 46 48             	lea    eax,[esi+0x48]
  402522:	75 45                	jne    0x402569
  402524:	8d 56 44             	lea    edx,[esi+0x44]
  402527:	6a 04                	push   0x4
  402529:	52                   	push   edx
  40252a:	50                   	push   eax
  40252b:	8d 46 3c             	lea    eax,[esi+0x3c]
  40252e:	50                   	push   eax
  40252f:	8d 46 40             	lea    eax,[esi+0x40]
  402532:	50                   	push   eax
  402533:	8a 87 09 01 00 00    	mov    al,BYTE PTR [edi+0x109]
  402539:	50                   	push   eax
  40253a:	8a 87 0a 01 00 00    	mov    al,BYTE PTR [edi+0x10a]
  402540:	50                   	push   eax
  402541:	8a 87 0b 01 00 00    	mov    al,BYTE PTR [edi+0x10b]
  402547:	50                   	push   eax
  402548:	8d 87 d4 00 00 00    	lea    eax,[edi+0xd4]
  40254e:	50                   	push   eax
  40254f:	0f b6 87 05 01 00 00 	movzx  eax,BYTE PTR [edi+0x105]
  402556:	50                   	push   eax
  402557:	8d 46 34             	lea    eax,[esi+0x34]
  40255a:	51                   	push   ecx
  40255b:	50                   	push   eax
  40255c:	8d 46 38             	lea    eax,[esi+0x38]
  40255f:	50                   	push   eax
  402560:	56                   	push   esi
  402561:	e8 87 f1 ff ff       	call   0x4016ed
  402566:	83 c4 38             	add    esp,0x38
  402569:	80 7e 55 00          	cmp    BYTE PTR [esi+0x55],0x0
  40256d:	74 14                	je     0x402583
  40256f:	0f b7 87 12 01 00 00 	movzx  eax,WORD PTR [edi+0x112]
  402576:	29 46 49             	sub    DWORD PTR [esi+0x49],eax
  402579:	79 04                	jns    0x40257f
  40257b:	83 66 49 00          	and    DWORD PTR [esi+0x49],0x0
  40257f:	80 4e 02 02          	or     BYTE PTR [esi+0x2],0x2
  402583:	8b 44 24 18          	mov    eax,DWORD PTR [esp+0x18]
  402587:	8a 48 02             	mov    cl,BYTE PTR [eax+0x2]
  40258a:	0f b6 c1             	movzx  eax,cl
  40258d:	8b d0                	mov    edx,eax
  40258f:	c1 ea 04             	shr    edx,0x4
  402592:	83 ea 06             	sub    edx,0x6
  402595:	74 63                	je     0x4025fa
  402597:	4a                   	dec    edx
  402598:	74 4d                	je     0x4025e7
  40259a:	83 ea 04             	sub    edx,0x4
  40259d:	74 27                	je     0x4025c6
  40259f:	4a                   	dec    edx
  4025a0:	4a                   	dec    edx
  4025a1:	74 1b                	je     0x4025be
  4025a3:	4a                   	dec    edx
  4025a4:	74 0c                	je     0x4025b2
  4025a6:	4a                   	dec    edx
  4025a7:	75 61                	jne    0x40260a
  4025a9:	56                   	push   esi
  4025aa:	e8 bd ee ff ff       	call   0x40146c
  4025af:	59                   	pop    ecx
  4025b0:	eb 58                	jmp    0x40260a
  4025b2:	83 e0 0f             	and    eax,0xf
  4025b5:	01 46 13             	add    DWORD PTR [esi+0x13],eax
  4025b8:	80 4e 02 04          	or     BYTE PTR [esi+0x2],0x4
  4025bc:	eb 4c                	jmp    0x40260a
  4025be:	83 e0 0f             	and    eax,0xf
  4025c1:	29 46 13             	sub    DWORD PTR [esi+0x13],eax
  4025c4:	eb f2                	jmp    0x4025b8
  4025c6:	80 e1 0f             	and    cl,0xf
  4025c9:	56                   	push   esi
  4025ca:	88 4e 70             	mov    BYTE PTR [esi+0x70],cl
  4025cd:	e8 d4 ee ff ff       	call   0x4014a6
  4025d2:	8a 46 6f             	mov    al,BYTE PTR [esi+0x6f]
  4025d5:	59                   	pop    ecx
  4025d6:	00 46 6e             	add    BYTE PTR [esi+0x6e],al
  4025d9:	8a 46 6e             	mov    al,BYTE PTR [esi+0x6e]
  4025dc:	3c 1f                	cmp    al,0x1f
  4025de:	7e 2a                	jle    0x40260a
  4025e0:	2c 40                	sub    al,0x40
  4025e2:	88 46 6e             	mov    BYTE PTR [esi+0x6e],al
  4025e5:	eb 23                	jmp    0x40260a
  4025e7:	83 e0 0f             	and    eax,0xf
  4025ea:	6a 40                	push   0x40
  4025ec:	01 46 0f             	add    DWORD PTR [esi+0xf],eax
  4025ef:	58                   	pop    eax
  4025f0:	39 46 0f             	cmp    DWORD PTR [esi+0xf],eax
  4025f3:	7e 11                	jle    0x402606
  4025f5:	89 46 0f             	mov    DWORD PTR [esi+0xf],eax
  4025f8:	eb 0c                	jmp    0x402606
  4025fa:	83 e0 0f             	and    eax,0xf
  4025fd:	29 46 0f             	sub    DWORD PTR [esi+0xf],eax
  402600:	79 04                	jns    0x402606
  402602:	83 66 0f 00          	and    DWORD PTR [esi+0xf],0x0
  402606:	80 4e 02 02          	or     BYTE PTR [esi+0x2],0x2
  40260a:	0f b6 44 24 13       	movzx  eax,BYTE PTR [esp+0x13]
  40260f:	83 f8 07             	cmp    eax,0x7
  402612:	0f 8f a5 01 00 00    	jg     0x4027bd
  402618:	0f 84 97 01 00 00    	je     0x4027b5
  40261e:	33 c9                	xor    ecx,ecx
  402620:	2b c1                	sub    eax,ecx
  402622:	0f 84 d5 00 00 00    	je     0x4026fd
  402628:	48                   	dec    eax
  402629:	0f 84 b4 00 00 00    	je     0x4026e3
  40262f:	48                   	dec    eax
  402630:	0f 84 97 00 00 00    	je     0x4026cd
  402636:	48                   	dec    eax
  402637:	0f 84 81 00 00 00    	je     0x4026be
  40263d:	48                   	dec    eax
  40263e:	74 5c                	je     0x40269c
  402640:	48                   	dec    eax
  402641:	74 4c                	je     0x40268f
  402643:	48                   	dec    eax
  402644:	0f 85 97 03 00 00    	jne    0x4029e1
  40264a:	56                   	push   esi
  40264b:	e8 56 ee ff ff       	call   0x4014a6
  402650:	8a 46 6f             	mov    al,BYTE PTR [esi+0x6f]
  402653:	59                   	pop    ecx
  402654:	00 46 6e             	add    BYTE PTR [esi+0x6e],al
  402657:	8a 46 6e             	mov    al,BYTE PTR [esi+0x6e]
  40265a:	3c 1f                	cmp    al,0x1f
  40265c:	7e 05                	jle    0x402663
  40265e:	2c 40                	sub    al,0x40
  402660:	88 46 6e             	mov    BYTE PTR [esi+0x6e],al
  402663:	8a 46 65             	mov    al,BYTE PTR [esi+0x65]
  402666:	8a c8                	mov    cl,al
  402668:	24 0f                	and    al,0xf
  40266a:	c0 e9 04             	shr    cl,0x4
  40266d:	84 c9                	test   cl,cl
  40266f:	0f 84 58 03 00 00    	je     0x4029cd
  402675:	0f b6 c1             	movzx  eax,cl
  402678:	01 46 0f             	add    DWORD PTR [esi+0xf],eax
  40267b:	6a 40                	push   0x40
  40267d:	58                   	pop    eax
  40267e:	39 46 0f             	cmp    DWORD PTR [esi+0xf],eax
  402681:	0f 8e 56 03 00 00    	jle    0x4029dd
  402687:	89 46 0f             	mov    DWORD PTR [esi+0xf],eax
  40268a:	e9 4e 03 00 00       	jmp    0x4029dd
  40268f:	83 66 1b 00          	and    DWORD PTR [esi+0x1b],0x0
  402693:	56                   	push   esi
  402694:	e8 d3 ed ff ff       	call   0x40146c
  402699:	59                   	pop    ecx
  40269a:	eb c7                	jmp    0x402663
  40269c:	56                   	push   esi
  40269d:	e8 04 ee ff ff       	call   0x4014a6
  4026a2:	8a 46 6f             	mov    al,BYTE PTR [esi+0x6f]
  4026a5:	59                   	pop    ecx
  4026a6:	00 46 6e             	add    BYTE PTR [esi+0x6e],al
  4026a9:	8a 46 6e             	mov    al,BYTE PTR [esi+0x6e]
  4026ac:	3c 1f                	cmp    al,0x1f
  4026ae:	0f 8e 2d 03 00 00    	jle    0x4029e1
  4026b4:	2c 40                	sub    al,0x40
  4026b6:	88 46 6e             	mov    BYTE PTR [esi+0x6e],al
  4026b9:	e9 23 03 00 00       	jmp    0x4029e1
  4026be:	83 66 1b 00          	and    DWORD PTR [esi+0x1b],0x0
  4026c2:	56                   	push   esi
  4026c3:	e8 a4 ed ff ff       	call   0x40146c
  4026c8:	e9 26 01 00 00       	jmp    0x4027f3
  4026cd:	0f b6 46 61          	movzx  eax,BYTE PTR [esi+0x61]
  4026d1:	c1 e0 02             	shl    eax,0x2
  4026d4:	01 46 0b             	add    DWORD PTR [esi+0xb],eax
  4026d7:	89 4e 1b             	mov    DWORD PTR [esi+0x1b],ecx
  4026da:	80 4e 02 01          	or     BYTE PTR [esi+0x2],0x1
  4026de:	e9 fe 02 00 00       	jmp    0x4029e1
  4026e3:	0f b6 46 62          	movzx  eax,BYTE PTR [esi+0x62]
  4026e7:	c1 e0 02             	shl    eax,0x2
  4026ea:	29 46 0b             	sub    DWORD PTR [esi+0xb],eax
  4026ed:	6a 38                	push   0x38
  4026ef:	58                   	pop    eax
  4026f0:	89 4e 1b             	mov    DWORD PTR [esi+0x1b],ecx
  4026f3:	39 46 0b             	cmp    DWORD PTR [esi+0xb],eax
  4026f6:	7d e2                	jge    0x4026da
  4026f8:	89 46 0b             	mov    DWORD PTR [esi+0xb],eax
  4026fb:	eb dd                	jmp    0x4026da
  4026fd:	8b 44 24 18          	mov    eax,DWORD PTR [esp+0x18]
  402701:	80 78 04 00          	cmp    BYTE PTR [eax+0x4],0x0
  402705:	0f 86 d6 02 00 00    	jbe    0x4029e1
  40270b:	8b 85 2a 01 00 00    	mov    eax,DWORD PTR [ebp+0x12a]
  402711:	6a 03                	push   0x3
  402713:	99                   	cdq    
  402714:	59                   	pop    ecx
  402715:	f7 f9                	idiv   ecx
  402717:	4a                   	dec    edx
  402718:	74 56                	je     0x402770
  40271a:	4a                   	dec    edx
  40271b:	75 bd                	jne    0x4026da
  40271d:	f6 45 20 01          	test   BYTE PTR [ebp+0x20],0x1
  402721:	74 0d                	je     0x402730
  402723:	0f b6 44 24 24       	movzx  eax,BYTE PTR [esp+0x24]
  402728:	c1 e0 06             	shl    eax,0x6
  40272b:	89 46 1b             	mov    DWORD PTR [esi+0x1b],eax
  40272e:	eb aa                	jmp    0x4026da
  402730:	8b 5c 24 14          	mov    ebx,DWORD PTR [esp+0x14]
  402734:	0f b6 4c 24 24       	movzx  ecx,BYTE PTR [esp+0x24]
  402739:	0f be 43 11          	movsx  eax,BYTE PTR [ebx+0x11]
  40273d:	50                   	push   eax
  40273e:	0f b6 46 57          	movzx  eax,BYTE PTR [esi+0x57]
  402742:	03 c1                	add    eax,ecx
  402744:	50                   	push   eax
  402745:	e8 a5 f1 ff ff       	call   0x4018ef
  40274a:	8b d0                	mov    edx,eax
  40274c:	0f be 43 11          	movsx  eax,BYTE PTR [ebx+0x11]
  402750:	50                   	push   eax
  402751:	89 54 24 30          	mov    DWORD PTR [esp+0x30],edx
  402755:	0f b6 46 57          	movzx  eax,BYTE PTR [esi+0x57]
  402759:	50                   	push   eax
  40275a:	e8 90 f1 ff ff       	call   0x4018ef
  40275f:	8b 4c 24 34          	mov    ecx,DWORD PTR [esp+0x34]
  402763:	83 c4 10             	add    esp,0x10
  402766:	2b c8                	sub    ecx,eax
  402768:	89 4e 1b             	mov    DWORD PTR [esi+0x1b],ecx
  40276b:	e9 6a ff ff ff       	jmp    0x4026da
  402770:	f6 45 20 01          	test   BYTE PTR [ebp+0x20],0x1
  402774:	74 05                	je     0x40277b
  402776:	0f b6 c3             	movzx  eax,bl
  402779:	eb ad                	jmp    0x402728
  40277b:	8b 44 24 14          	mov    eax,DWORD PTR [esp+0x14]
  40277f:	0f b6 cb             	movzx  ecx,bl
  402782:	0f be 40 11          	movsx  eax,BYTE PTR [eax+0x11]
  402786:	50                   	push   eax
  402787:	0f b6 46 57          	movzx  eax,BYTE PTR [esi+0x57]
  40278b:	03 c1                	add    eax,ecx
  40278d:	50                   	push   eax
  40278e:	e8 5c f1 ff ff       	call   0x4018ef
  402793:	8b d8                	mov    ebx,eax
  402795:	8b 44 24 1c          	mov    eax,DWORD PTR [esp+0x1c]
  402799:	0f be 40 11          	movsx  eax,BYTE PTR [eax+0x11]
  40279d:	50                   	push   eax
  40279e:	0f b6 46 57          	movzx  eax,BYTE PTR [esi+0x57]
  4027a2:	50                   	push   eax
  4027a3:	e8 47 f1 ff ff       	call   0x4018ef
  4027a8:	83 c4 10             	add    esp,0x10
  4027ab:	2b d8                	sub    ebx,eax
  4027ad:	89 5e 1b             	mov    DWORD PTR [esi+0x1b],ebx
  4027b0:	e9 25 ff ff ff       	jmp    0x4026da
  4027b5:	56                   	push   esi
  4027b6:	e8 50 ee ff ff       	call   0x40160b
  4027bb:	eb 36                	jmp    0x4027f3
  4027bd:	83 e8 0a             	sub    eax,0xa
  4027c0:	0f 84 9d fe ff ff    	je     0x402663
  4027c6:	83 e8 04             	sub    eax,0x4
  4027c9:	0f 84 79 01 00 00    	je     0x402948
  4027cf:	83 e8 03             	sub    eax,0x3
  4027d2:	0f 84 13 01 00 00    	je     0x4028eb
  4027d8:	83 e8 08             	sub    eax,0x8
  4027db:	0f 84 ce 00 00 00    	je     0x4028af
  4027e1:	48                   	dec    eax
  4027e2:	48                   	dec    eax
  4027e3:	74 14                	je     0x4027f9
  4027e5:	48                   	dec    eax
  4027e6:	48                   	dec    eax
  4027e7:	0f 85 f4 01 00 00    	jne    0x4029e1
  4027ed:	56                   	push   esi
  4027ee:	e8 64 f1 ff ff       	call   0x401957
  4027f3:	59                   	pop    ecx
  4027f4:	e9 e8 01 00 00       	jmp    0x4029e1
  4027f9:	8a 46 68             	mov    al,BYTE PTR [esi+0x68]
  4027fc:	84 c0                	test   al,al
  4027fe:	0f 84 dd 01 00 00    	je     0x4029e1
  402804:	0f b6 c8             	movzx  ecx,al
  402807:	8b 85 2a 01 00 00    	mov    eax,DWORD PTR [ebp+0x12a]
  40280d:	99                   	cdq    
  40280e:	f7 f9                	idiv   ecx
  402810:	85 d2                	test   edx,edx
  402812:	0f 85 c9 01 00 00    	jne    0x4029e1
  402818:	8a 46 67             	mov    al,BYTE PTR [esi+0x67]
  40281b:	84 c0                	test   al,al
  40281d:	0f 84 70 01 00 00    	je     0x402993
  402823:	0f b6 c0             	movzx  eax,al
  402826:	48                   	dec    eax
  402827:	83 f8 0e             	cmp    eax,0xe
  40282a:	77 66                	ja     0x402892
  40282c:	ff 24 85 15 2a 40 00 	jmp    DWORD PTR [eax*4+0x402a15]
  402833:	ff 4e 0f             	dec    DWORD PTR [esi+0xf]
  402836:	eb 5a                	jmp    0x402892
  402838:	83 46 0f fe          	add    DWORD PTR [esi+0xf],0xfffffffe
  40283c:	eb 54                	jmp    0x402892
  40283e:	83 46 0f fc          	add    DWORD PTR [esi+0xf],0xfffffffc
  402842:	eb 4e                	jmp    0x402892
  402844:	83 46 0f f8          	add    DWORD PTR [esi+0xf],0xfffffff8
  402848:	eb 48                	jmp    0x402892
  40284a:	83 46 0f f0          	add    DWORD PTR [esi+0xf],0xfffffff0
  40284e:	eb 42                	jmp    0x402892
  402850:	8b 46 0f             	mov    eax,DWORD PTR [esi+0xf]
  402853:	6a 03                	push   0x3
  402855:	d1 e0                	shl    eax,1
  402857:	99                   	cdq    
  402858:	59                   	pop    ecx
  402859:	f7 f9                	idiv   ecx
  40285b:	eb 2d                	jmp    0x40288a
  40285d:	d1 7e 0f             	sar    DWORD PTR [esi+0xf],1
  402860:	eb 30                	jmp    0x402892
  402862:	ff 46 0f             	inc    DWORD PTR [esi+0xf]
  402865:	eb 2b                	jmp    0x402892
  402867:	83 46 0f 02          	add    DWORD PTR [esi+0xf],0x2
  40286b:	eb 25                	jmp    0x402892
  40286d:	83 46 0f 04          	add    DWORD PTR [esi+0xf],0x4
  402871:	eb 1f                	jmp    0x402892
  402873:	83 46 0f 08          	add    DWORD PTR [esi+0xf],0x8
  402877:	eb 19                	jmp    0x402892
  402879:	83 46 0f 10          	add    DWORD PTR [esi+0xf],0x10
  40287d:	eb 13                	jmp    0x402892
  40287f:	8b 46 0f             	mov    eax,DWORD PTR [esi+0xf]
  402882:	8d 04 40             	lea    eax,[eax+eax*2]
  402885:	99                   	cdq    
  402886:	2b c2                	sub    eax,edx
  402888:	d1 f8                	sar    eax,1
  40288a:	89 46 0f             	mov    DWORD PTR [esi+0xf],eax
  40288d:	eb 03                	jmp    0x402892
  40288f:	d1 66 0f             	shl    DWORD PTR [esi+0xf],1
  402892:	6a 40                	push   0x40
  402894:	8d 46 0f             	lea    eax,[esi+0xf]
  402897:	59                   	pop    ecx
  402898:	39 08                	cmp    DWORD PTR [eax],ecx
  40289a:	7e 02                	jle    0x40289e
  40289c:	89 08                	mov    DWORD PTR [eax],ecx
  40289e:	83 38 00             	cmp    DWORD PTR [eax],0x0
  4028a1:	7d 03                	jge    0x4028a6
  4028a3:	83 20 00             	and    DWORD PTR [eax],0x0
  4028a6:	80 4e 02 02          	or     BYTE PTR [esi+0x2],0x2
  4028aa:	e9 e4 00 00 00       	jmp    0x402993
  4028af:	8a 46 66             	mov    al,BYTE PTR [esi+0x66]
  4028b2:	8a c8                	mov    cl,al
  4028b4:	24 0f                	and    al,0xf
  4028b6:	c0 e9 04             	shr    cl,0x4
  4028b9:	84 c9                	test   cl,cl
  4028bb:	74 15                	je     0x4028d2
  4028bd:	0f b6 c1             	movzx  eax,cl
  4028c0:	01 46 13             	add    DWORD PTR [esi+0x13],eax
  4028c3:	b8 ff 00 00 00       	mov    eax,0xff
  4028c8:	39 46 13             	cmp    DWORD PTR [esi+0x13],eax
  4028cb:	7e 15                	jle    0x4028e2
  4028cd:	89 46 13             	mov    DWORD PTR [esi+0x13],eax
  4028d0:	eb 10                	jmp    0x4028e2
  4028d2:	84 c0                	test   al,al
  4028d4:	74 0c                	je     0x4028e2
  4028d6:	0f b6 c0             	movzx  eax,al
  4028d9:	29 46 13             	sub    DWORD PTR [esi+0x13],eax
  4028dc:	79 04                	jns    0x4028e2
  4028de:	83 66 13 00          	and    DWORD PTR [esi+0x13],0x0
  4028e2:	80 4e 02 04          	or     BYTE PTR [esi+0x2],0x4
  4028e6:	e9 f6 00 00 00       	jmp    0x4029e1
  4028eb:	8a 85 4a 01 00 00    	mov    al,BYTE PTR [ebp+0x14a]
  4028f1:	8a c8                	mov    cl,al
  4028f3:	24 0f                	and    al,0xf
  4028f5:	c0 e9 04             	shr    cl,0x4
  4028f8:	84 c9                	test   cl,cl
  4028fa:	74 27                	je     0x402923
  4028fc:	0f b6 c9             	movzx  ecx,cl
  4028ff:	01 8d 26 01 00 00    	add    DWORD PTR [ebp+0x126],ecx
  402905:	83 bd 26 01 00 00 40 	cmp    DWORD PTR [ebp+0x126],0x40
  40290c:	8d 85 26 01 00 00    	lea    eax,[ebp+0x126]
  402912:	0f 8e c9 00 00 00    	jle    0x4029e1
  402918:	c7 00 40 00 00 00    	mov    DWORD PTR [eax],0x40
  40291e:	e9 be 00 00 00       	jmp    0x4029e1
  402923:	84 c0                	test   al,al
  402925:	0f 84 b6 00 00 00    	je     0x4029e1
  40292b:	0f b6 c0             	movzx  eax,al
  40292e:	29 85 26 01 00 00    	sub    DWORD PTR [ebp+0x126],eax
  402934:	8d 8d 26 01 00 00    	lea    ecx,[ebp+0x126]
  40293a:	0f 89 a1 00 00 00    	jns    0x4029e1
  402940:	83 21 00             	and    DWORD PTR [ecx],0x0
  402943:	e9 99 00 00 00       	jmp    0x4029e1
  402948:	0f b6 c3             	movzx  eax,bl
  40294b:	83 e8 09             	sub    eax,0x9
  40294e:	74 5e                	je     0x4029ae
  402950:	83 e8 03             	sub    eax,0x3
  402953:	74 4a                	je     0x40299f
  402955:	48                   	dec    eax
  402956:	0f 85 85 00 00 00    	jne    0x4029e1
  40295c:	0f b6 44 24 24       	movzx  eax,BYTE PTR [esp+0x24]
  402961:	39 85 2a 01 00 00    	cmp    DWORD PTR [ebp+0x12a],eax
  402967:	75 30                	jne    0x402999
  402969:	ff 74 24 14          	push   DWORD PTR [esp+0x14]
  40296d:	56                   	push   esi
  40296e:	e8 10 f2 ff ff       	call   0x401b83
  402973:	8b 46 58             	mov    eax,DWORD PTR [esi+0x58]
  402976:	80 4e 02 01          	or     BYTE PTR [esi+0x2],0x1
  40297a:	89 46 0b             	mov    DWORD PTR [esi+0xb],eax
  40297d:	8b 44 24 20          	mov    eax,DWORD PTR [esp+0x20]
  402981:	59                   	pop    ecx
  402982:	8a 40 02             	mov    al,BYTE PTR [eax+0x2]
  402985:	59                   	pop    ecx
  402986:	84 c0                	test   al,al
  402988:	74 09                	je     0x402993
  40298a:	50                   	push   eax
  40298b:	56                   	push   esi
  40298c:	e8 55 ee ff ff       	call   0x4017e6
  402991:	59                   	pop    ecx
  402992:	59                   	pop    ecx
  402993:	80 4e 02 08          	or     BYTE PTR [esi+0x2],0x8
  402997:	eb 48                	jmp    0x4029e1
  402999:	80 66 02 f0          	and    BYTE PTR [esi+0x2],0xf0
  40299d:	eb 42                	jmp    0x4029e1
  40299f:	0f b6 44 24 24       	movzx  eax,BYTE PTR [esp+0x24]
  4029a4:	39 85 2a 01 00 00    	cmp    DWORD PTR [ebp+0x12a],eax
  4029aa:	75 35                	jne    0x4029e1
  4029ac:	eb 2b                	jmp    0x4029d9
  4029ae:	80 7c 24 24 00       	cmp    BYTE PTR [esp+0x24],0x0
  4029b3:	74 2c                	je     0x4029e1
  4029b5:	8b 85 2a 01 00 00    	mov    eax,DWORD PTR [ebp+0x12a]
  4029bb:	0f b6 4c 24 24       	movzx  ecx,BYTE PTR [esp+0x24]
  4029c0:	99                   	cdq    
  4029c1:	f7 f9                	idiv   ecx
  4029c3:	85 d2                	test   edx,edx
  4029c5:	75 1a                	jne    0x4029e1
  4029c7:	80 4e 02 0b          	or     BYTE PTR [esi+0x2],0xb
  4029cb:	eb 14                	jmp    0x4029e1
  4029cd:	84 c0                	test   al,al
  4029cf:	74 0c                	je     0x4029dd
  4029d1:	0f b6 c0             	movzx  eax,al
  4029d4:	29 46 0f             	sub    DWORD PTR [esi+0xf],eax
  4029d7:	79 04                	jns    0x4029dd
  4029d9:	83 66 0f 00          	and    DWORD PTR [esi+0xf],0x0
  4029dd:	80 4e 02 02          	or     BYTE PTR [esi+0x2],0x2
  4029e1:	57                   	push   edi
  4029e2:	56                   	push   esi
  4029e3:	e8 3d eb ff ff       	call   0x401525
  4029e8:	55                   	push   ebp
  4029e9:	ff 74 24 20          	push   DWORD PTR [esp+0x20]
  4029ed:	56                   	push   esi
  4029ee:	e8 9a ef ff ff       	call   0x40198d
  4029f3:	0f bf 45 1c          	movsx  eax,WORD PTR [ebp+0x1c]
  4029f7:	83 44 24 2c 05       	add    DWORD PTR [esp+0x2c],0x5
  4029fc:	83 c4 14             	add    esp,0x14
  4029ff:	ff 44 24 1c          	inc    DWORD PTR [esp+0x1c]
  402a03:	39 44 24 1c          	cmp    DWORD PTR [esp+0x1c],eax
  402a07:	0f 8c 1f fa ff ff    	jl     0x40242c
  402a0d:	5f                   	pop    edi
  402a0e:	5b                   	pop    ebx
  402a0f:	5e                   	pop    esi
  402a10:	5d                   	pop    ebp
  402a11:	83 c4 10             	add    esp,0x10
  402a14:	c3                   	ret


    
  402a15:	33 28                	xor    ebp,DWORD PTR [eax]
  402a17:	40                   	inc    eax
  402a18:	00 38                	add    BYTE PTR [eax],bh
  402a1a:	28 40 00             	sub    BYTE PTR [eax+0x0],al
  402a1d:	3e 28 40 00          	sub    BYTE PTR ds:[eax+0x0],al
  402a21:	44                   	inc    esp
  402a22:	28 40 00             	sub    BYTE PTR [eax+0x0],al
  402a25:	4a                   	dec    edx
  402a26:	28 40 00             	sub    BYTE PTR [eax+0x0],al
  402a29:	50                   	push   eax
  402a2a:	28 40 00             	sub    BYTE PTR [eax+0x0],al
  402a2d:	5d                   	pop    ebp
  402a2e:	28 40 00             	sub    BYTE PTR [eax+0x0],al
  402a31:	92                   	xchg   edx,eax
  402a32:	28 40 00             	sub    BYTE PTR [eax+0x0],al
  402a35:	62 28                	bound  ebp,QWORD PTR [eax]
  402a37:	40                   	inc    eax
  402a38:	00 67 28             	add    BYTE PTR [edi+0x28],ah
  402a3b:	40                   	inc    eax
  402a3c:	00 6d 28             	add    BYTE PTR [ebp+0x28],ch
  402a3f:	40                   	inc    eax
  402a40:	00 73 28             	add    BYTE PTR [ebx+0x28],dh
  402a43:	40                   	inc    eax
  402a44:	00 79 28             	add    BYTE PTR [ecx+0x28],bh
  402a47:	40                   	inc    eax
  402a48:	00 7f 28             	add    BYTE PTR [edi+0x28],bh
  402a4b:	40                   	inc    eax
  402a4c:	00 8f 28 40 00 56    	add    BYTE PTR [edi+0x56004028],cl
  402a52:	8b 74 24 08          	mov    esi,DWORD PTR [esp+0x8]
  402a56:	83 be 2a 01 00 00 00 	cmp    DWORD PTR [esi+0x12a],0x0
  402a5d:	75 75                	jne    0x402ad4
  402a5f:	8b 86 42 01 00 00    	mov    eax,DWORD PTR [esi+0x142]
  402a65:	85 c0                	test   eax,eax
  402a67:	7c 06                	jl     0x402a6f
  402a69:	89 86 36 01 00 00    	mov    DWORD PTR [esi+0x136],eax
  402a6f:	8b 86 3e 01 00 00    	mov    eax,DWORD PTR [esi+0x13e]
  402a75:	85 c0                	test   eax,eax
  402a77:	7c 06                	jl     0x402a7f
  402a79:	89 86 32 01 00 00    	mov    DWORD PTR [esi+0x132],eax
  402a7f:	56                   	push   esi
  402a80:	e8 73 f1 ff ff       	call   0x401bf8
  402a85:	83 be 3e 01 00 00 ff 	cmp    DWORD PTR [esi+0x13e],0xffffffff
  402a8c:	59                   	pop    ecx
  402a8d:	75 4c                	jne    0x402adb
  402a8f:	8b 86 32 01 00 00    	mov    eax,DWORD PTR [esi+0x132]
  402a95:	8b 8e 36 01 00 00    	mov    ecx,DWORD PTR [esi+0x136]
  402a9b:	40                   	inc    eax
  402a9c:	53                   	push   ebx
  402a9d:	8b 1e                	mov    ebx,DWORD PTR [esi]
  402a9f:	89 86 3e 01 00 00    	mov    DWORD PTR [esi+0x13e],eax
  402aa5:	0f b6 54 31 26       	movzx  edx,BYTE PTR [ecx+esi*1+0x26]
  402aaa:	3b 04 d3             	cmp    eax,DWORD PTR [ebx+edx*8]
  402aad:	5b                   	pop    ebx
  402aae:	7c 2b                	jl     0x402adb
  402ab0:	8d 41 01             	lea    eax,[ecx+0x1]
  402ab3:	0f bf 4e 18          	movsx  ecx,WORD PTR [esi+0x18]
  402ab7:	3b c1                	cmp    eax,ecx
  402ab9:	89 86 42 01 00 00    	mov    DWORD PTR [esi+0x142],eax
  402abf:	7c 0a                	jl     0x402acb
  402ac1:	0f bf 46 1a          	movsx  eax,WORD PTR [esi+0x1a]
  402ac5:	89 86 42 01 00 00    	mov    DWORD PTR [esi+0x142],eax
  402acb:	83 a6 3e 01 00 00 00 	and    DWORD PTR [esi+0x13e],0x0
  402ad2:	eb 07                	jmp    0x402adb
  402ad4:	56                   	push   esi
  402ad5:	e8 0a f9 ff ff       	call   0x4023e4
  402ada:	59                   	pop    ecx
  402adb:	8b 96 2e 01 00 00    	mov    edx,DWORD PTR [esi+0x12e]
  402ae1:	ff 86 2a 01 00 00    	inc    DWORD PTR [esi+0x12a]
  402ae7:	03 96 3a 01 00 00    	add    edx,DWORD PTR [esi+0x13a]
  402aed:	8b 8e 2a 01 00 00    	mov    ecx,DWORD PTR [esi+0x12a]
  402af3:	8d 86 3a 01 00 00    	lea    eax,[esi+0x13a]
  402af9:	3b ca                	cmp    ecx,edx
  402afb:	7c 0a                	jl     0x402b07
  402afd:	83 20 00             	and    DWORD PTR [eax],0x0
  402b00:	83 a6 2a 01 00 00 00 	and    DWORD PTR [esi+0x12a],0x0
  402b07:	5e                   	pop    esi
  402b08:	c3                   	ret


    
  402b09:	55                   	push   ebp
  402b0a:	8b ec                	mov    ebp,esp
  402b0c:	83 ec 24             	sub    esp,0x24
  402b0f:	53                   	push   ebx
  402b10:	56                   	push   esi
  402b11:	57                   	push   edi
  402b12:	8d 45 f4             	lea    eax,[ebp-0xc]
  402b15:	33 f6                	xor    esi,esi
  402b17:	6a 04                	push   0x4
  402b19:	50                   	push   eax
  402b1a:	89 75 ec             	mov    DWORD PTR [ebp-0x14],esi
  402b1d:	ff 15 e0 8e 40 00    	call   DWORD PTR ds:0x408ee0
  402b23:	81 7d f4 45 78 74 65 	cmp    DWORD PTR [ebp-0xc],0x65747845
  402b2a:	59                   	pop    ecx
  402b2b:	59                   	pop    ecx
  402b2c:	0f 85 80 05 00 00    	jne    0x4030b2
  402b32:	56                   	push   esi
  402b33:	6a 3c                	push   0x3c
  402b35:	ff 15 6c 9f 40 00    	call   DWORD PTR ds:0x409f6c
  402b3b:	8d 45 e0             	lea    eax,[ebp-0x20]
  402b3e:	6a 04                	push   0x4
  402b40:	50                   	push   eax
  402b41:	ff 15 e0 8e 40 00    	call   DWORD PTR ds:0x408ee0
  402b47:	8b 5d 08             	mov    ebx,DWORD PTR [ebp+0x8]
  402b4a:	6a 06                	push   0x6
  402b4c:	8d 7b 18             	lea    edi,[ebx+0x18]
  402b4f:	57                   	push   edi
  402b50:	ff 15 e0 8e 40 00    	call   DWORD PTR ds:0x408ee0
  402b56:	8d 45 ec             	lea    eax,[ebp-0x14]
  402b59:	6a 02                	push   0x2
  402b5b:	50                   	push   eax
  402b5c:	ff 15 e0 8e 40 00    	call   DWORD PTR ds:0x408ee0
  402b62:	8d 43 1e             	lea    eax,[ebx+0x1e]
  402b65:	68 08 01 00 00       	push   0x108
  402b6a:	50                   	push   eax
  402b6b:	ff 15 e0 8e 40 00    	call   DWORD PTR ds:0x408ee0
  402b71:	8b 45 e0             	mov    eax,DWORD PTR [ebp-0x20]
  402b74:	56                   	push   esi
  402b75:	83 c0 3c             	add    eax,0x3c
  402b78:	50                   	push   eax
  402b79:	ff 15 6c 9f 40 00    	call   DWORD PTR ds:0x409f6c
  402b7f:	0f bf 07             	movsx  eax,WORD PTR [edi]
  402b82:	83 c4 30             	add    esp,0x30
  402b85:	3b c6                	cmp    eax,esi
  402b87:	89 73 10             	mov    DWORD PTR [ebx+0x10],esi
  402b8a:	89 75 f4             	mov    DWORD PTR [ebp-0xc],esi
  402b8d:	7e 19                	jle    0x402ba8
  402b8f:	8b 4d f4             	mov    ecx,DWORD PTR [ebp-0xc]
  402b92:	0f b6 4c 0b 26       	movzx  ecx,BYTE PTR [ebx+ecx*1+0x26]
  402b97:	3b 4b 10             	cmp    ecx,DWORD PTR [ebx+0x10]
  402b9a:	7c 04                	jl     0x402ba0
  402b9c:	41                   	inc    ecx
  402b9d:	89 4b 10             	mov    DWORD PTR [ebx+0x10],ecx
  402ba0:	ff 45 f4             	inc    DWORD PTR [ebp-0xc]
  402ba3:	39 45 f4             	cmp    DWORD PTR [ebp-0xc],eax
  402ba6:	7c e7                	jl     0x402b8f
  402ba8:	0f b7 45 ec          	movzx  eax,WORD PTR [ebp-0x14]
  402bac:	8b 4b 10             	mov    ecx,DWORD PTR [ebx+0x10]
  402baf:	3b c8                	cmp    ecx,eax
  402bb1:	7e 02                	jle    0x402bb5
  402bb3:	8b c1                	mov    eax,ecx
  402bb5:	8b 3d 2c 10 40 00    	mov    edi,DWORD PTR ds:0x40102c
  402bbb:	89 43 14             	mov    DWORD PTR [ebx+0x14],eax
  402bbe:	c1 e0 03             	shl    eax,0x3
  402bc1:	50                   	push   eax
  402bc2:	6a 40                	push   0x40
  402bc4:	ff d7                	call   edi
  402bc6:	66 39 75 ec          	cmp    WORD PTR [ebp-0x14],si
  402bca:	89 03                	mov    DWORD PTR [ebx],eax
  402bcc:	89 75 f4             	mov    DWORD PTR [ebp-0xc],esi
  402bcf:	0f 86 4f 01 00 00    	jbe    0x402d24
  402bd5:	8b 03                	mov    eax,DWORD PTR [ebx]
  402bd7:	8b 4d f4             	mov    ecx,DWORD PTR [ebp-0xc]
  402bda:	80 65 ff 00          	and    BYTE PTR [ebp-0x1],0x0
  402bde:	6a 04                	push   0x4
  402be0:	8d 34 c8             	lea    esi,[eax+ecx*8]
  402be3:	8d 45 dc             	lea    eax,[ebp-0x24]
  402be6:	50                   	push   eax
  402be7:	ff 15 e0 8e 40 00    	call   DWORD PTR ds:0x408ee0
  402bed:	8d 45 ff             	lea    eax,[ebp-0x1]
  402bf0:	6a 01                	push   0x1
  402bf2:	50                   	push   eax
  402bf3:	ff 15 e0 8e 40 00    	call   DWORD PTR ds:0x408ee0
  402bf9:	8d 45 fc             	lea    eax,[ebp-0x4]
  402bfc:	6a 02                	push   0x2
  402bfe:	50                   	push   eax
  402bff:	ff 15 e0 8e 40 00    	call   DWORD PTR ds:0x408ee0
  402c05:	0f b7 45 fc          	movzx  eax,WORD PTR [ebp-0x4]
  402c09:	89 06                	mov    DWORD PTR [esi],eax
  402c0b:	8d 45 fa             	lea    eax,[ebp-0x6]
  402c0e:	6a 02                	push   0x2
  402c10:	50                   	push   eax
  402c11:	ff 15 e0 8e 40 00    	call   DWORD PTR ds:0x408ee0
  402c17:	0f bf 43 1c          	movsx  eax,WORD PTR [ebx+0x1c]
  402c1b:	0f af 06             	imul   eax,DWORD PTR [esi]
  402c1e:	83 c4 20             	add    esp,0x20
  402c21:	8d 04 80             	lea    eax,[eax+eax*4]
  402c24:	50                   	push   eax
  402c25:	6a 40                	push   0x40
  402c27:	ff d7                	call   edi
  402c29:	89 46 04             	mov    DWORD PTR [esi+0x4],eax
  402c2c:	66 83 7d fa 00       	cmp    WORD PTR [ebp-0x6],0x0
  402c31:	0f 86 db 00 00 00    	jbe    0x402d12
  402c37:	0f bf 4b 1c          	movsx  ecx,WORD PTR [ebx+0x1c]
  402c3b:	0f af 0e             	imul   ecx,DWORD PTR [esi]
  402c3e:	83 65 e4 00          	and    DWORD PTR [ebp-0x1c],0x0
  402c42:	89 45 e8             	mov    DWORD PTR [ebp-0x18],eax
  402c45:	85 c9                	test   ecx,ecx
  402c47:	0f 8e c5 00 00 00    	jle    0x402d12
  402c4d:	40                   	inc    eax
  402c4e:	89 45 f0             	mov    DWORD PTR [ebp-0x10],eax
  402c51:	8d 45 0b             	lea    eax,[ebp+0xb]
  402c54:	6a 01                	push   0x1
  402c56:	50                   	push   eax
  402c57:	ff 15 e0 8e 40 00    	call   DWORD PTR ds:0x408ee0
  402c5d:	8a 45 0b             	mov    al,BYTE PTR [ebp+0xb]
  402c60:	59                   	pop    ecx
  402c61:	a8 80                	test   al,0x80
  402c63:	59                   	pop    ecx
  402c64:	74 61                	je     0x402cc7
  402c66:	a8 01                	test   al,0x1
  402c68:	74 0d                	je     0x402c77
  402c6a:	6a 01                	push   0x1
  402c6c:	ff 75 e8             	push   DWORD PTR [ebp-0x18]
  402c6f:	ff 15 e0 8e 40 00    	call   DWORD PTR ds:0x408ee0
  402c75:	59                   	pop    ecx
  402c76:	59                   	pop    ecx
  402c77:	f6 45 0b 02          	test   BYTE PTR [ebp+0xb],0x2
  402c7b:	74 0d                	je     0x402c8a
  402c7d:	6a 01                	push   0x1
  402c7f:	ff 75 f0             	push   DWORD PTR [ebp-0x10]
  402c82:	ff 15 e0 8e 40 00    	call   DWORD PTR ds:0x408ee0
  402c88:	59                   	pop    ecx
  402c89:	59                   	pop    ecx
  402c8a:	f6 45 0b 04          	test   BYTE PTR [ebp+0xb],0x4
  402c8e:	74 0f                	je     0x402c9f
  402c90:	8b 45 f0             	mov    eax,DWORD PTR [ebp-0x10]
  402c93:	6a 01                	push   0x1
  402c95:	40                   	inc    eax
  402c96:	50                   	push   eax
  402c97:	ff 15 e0 8e 40 00    	call   DWORD PTR ds:0x408ee0
  402c9d:	59                   	pop    ecx
  402c9e:	59                   	pop    ecx
  402c9f:	f6 45 0b 08          	test   BYTE PTR [ebp+0xb],0x8
  402ca3:	74 11                	je     0x402cb6
  402ca5:	8b 45 f0             	mov    eax,DWORD PTR [ebp-0x10]
  402ca8:	6a 01                	push   0x1
  402caa:	83 c0 02             	add    eax,0x2
  402cad:	50                   	push   eax
  402cae:	ff 15 e0 8e 40 00    	call   DWORD PTR ds:0x408ee0
  402cb4:	59                   	pop    ecx
  402cb5:	59                   	pop    ecx
  402cb6:	f6 45 0b 10          	test   BYTE PTR [ebp+0xb],0x10
  402cba:	74 21                	je     0x402cdd
  402cbc:	8b 45 f0             	mov    eax,DWORD PTR [ebp-0x10]
  402cbf:	6a 01                	push   0x1
  402cc1:	83 c0 03             	add    eax,0x3
  402cc4:	50                   	push   eax
  402cc5:	eb 0e                	jmp    0x402cd5
  402cc7:	84 c0                	test   al,al
  402cc9:	74 05                	je     0x402cd0
  402ccb:	8b 4d e8             	mov    ecx,DWORD PTR [ebp-0x18]
  402cce:	88 01                	mov    BYTE PTR [ecx],al
  402cd0:	6a 04                	push   0x4
  402cd2:	ff 75 f0             	push   DWORD PTR [ebp-0x10]
  402cd5:	ff 15 e0 8e 40 00    	call   DWORD PTR ds:0x408ee0
  402cdb:	59                   	pop    ecx
  402cdc:	59                   	pop    ecx
  402cdd:	8b 4d e8             	mov    ecx,DWORD PTR [ebp-0x18]
  402ce0:	80 39 61             	cmp    BYTE PTR [ecx],0x61
  402ce3:	75 03                	jne    0x402ce8
  402ce5:	80 09 ff             	or     BYTE PTR [ecx],0xff
  402ce8:	8b 45 f0             	mov    eax,DWORD PTR [ebp-0x10]
  402ceb:	80 38 80             	cmp    BYTE PTR [eax],0x80
  402cee:	76 03                	jbe    0x402cf3
  402cf0:	80 20 00             	and    BYTE PTR [eax],0x0
  402cf3:	83 c0 05             	add    eax,0x5
  402cf6:	83 c1 05             	add    ecx,0x5
  402cf9:	89 45 f0             	mov    DWORD PTR [ebp-0x10],eax
  402cfc:	ff 45 e4             	inc    DWORD PTR [ebp-0x1c]
  402cff:	0f bf 43 1c          	movsx  eax,WORD PTR [ebx+0x1c]
  402d03:	0f af 06             	imul   eax,DWORD PTR [esi]
  402d06:	39 45 e4             	cmp    DWORD PTR [ebp-0x1c],eax
  402d09:	89 4d e8             	mov    DWORD PTR [ebp-0x18],ecx
  402d0c:	0f 8c 3f ff ff ff    	jl     0x402c51
  402d12:	0f b7 45 ec          	movzx  eax,WORD PTR [ebp-0x14]
  402d16:	ff 45 f4             	inc    DWORD PTR [ebp-0xc]
  402d19:	39 45 f4             	cmp    DWORD PTR [ebp-0xc],eax
  402d1c:	0f 8c b3 fe ff ff    	jl     0x402bd5
  402d22:	33 f6                	xor    esi,esi
  402d24:	0f b7 45 ec          	movzx  eax,WORD PTR [ebp-0x14]
  402d28:	8b 4b 10             	mov    ecx,DWORD PTR [ebx+0x10]
  402d2b:	3b c1                	cmp    eax,ecx
  402d2d:	7d 2e                	jge    0x402d5d
  402d2f:	89 45 f4             	mov    DWORD PTR [ebp-0xc],eax
  402d32:	8b 03                	mov    eax,DWORD PTR [ebx]
  402d34:	8b 4d f4             	mov    ecx,DWORD PTR [ebp-0xc]
  402d37:	6a 40                	push   0x40
  402d39:	8d 34 c8             	lea    esi,[eax+ecx*8]
  402d3c:	59                   	pop    ecx
  402d3d:	89 0e                	mov    DWORD PTR [esi],ecx
  402d3f:	0f bf 43 1c          	movsx  eax,WORD PTR [ebx+0x1c]
  402d43:	8d 04 80             	lea    eax,[eax+eax*4]
  402d46:	c1 e0 06             	shl    eax,0x6
  402d49:	50                   	push   eax
  402d4a:	51                   	push   ecx
  402d4b:	ff d7                	call   edi
  402d4d:	89 46 04             	mov    DWORD PTR [esi+0x4],eax
  402d50:	ff 45 f4             	inc    DWORD PTR [ebp-0xc]
  402d53:	8b 45 f4             	mov    eax,DWORD PTR [ebp-0xc]
  402d56:	3b 43 10             	cmp    eax,DWORD PTR [ebx+0x10]
  402d59:	7c d7                	jl     0x402d32
  402d5b:	33 f6                	xor    esi,esi
  402d5d:	0f bf 43 1e          	movsx  eax,WORD PTR [ebx+0x1e]
  402d61:	69 c0 14 01 00 00    	imul   eax,eax,0x114
  402d67:	50                   	push   eax
  402d68:	6a 40                	push   0x40
  402d6a:	ff d7                	call   edi
  402d6c:	89 43 04             	mov    DWORD PTR [ebx+0x4],eax
  402d6f:	33 c0                	xor    eax,eax
  402d71:	66 39 73 1e          	cmp    WORD PTR [ebx+0x1e],si
  402d75:	89 45 f4             	mov    DWORD PTR [ebp-0xc],eax
  402d78:	0f 8e 2d 03 00 00    	jle    0x4030ab
  402d7e:	69 c0 14 01 00 00    	imul   eax,eax,0x114
  402d84:	03 43 04             	add    eax,DWORD PTR [ebx+0x4]
  402d87:	8b f8                	mov    edi,eax
  402d89:	89 7d e8             	mov    DWORD PTR [ebp-0x18],edi
  402d8c:	ff 15 68 9f 40 00    	call   DWORD PTR ds:0x409f68
  402d92:	8b f0                	mov    esi,eax
  402d94:	8d 45 f0             	lea    eax,[ebp-0x10]
  402d97:	6a 04                	push   0x4
  402d99:	50                   	push   eax
  402d9a:	ff 15 e0 8e 40 00    	call   DWORD PTR ds:0x408ee0
  402da0:	03 75 f0             	add    esi,DWORD PTR [ebp-0x10]
  402da3:	6a 01                	push   0x1
  402da5:	6a 17                	push   0x17
  402da7:	ff 15 6c 9f 40 00    	call   DWORD PTR ds:0x409f6c
  402dad:	8d 45 fc             	lea    eax,[ebp-0x4]
  402db0:	6a 02                	push   0x2
  402db2:	50                   	push   eax
  402db3:	ff 15 e0 8e 40 00    	call   DWORD PTR ds:0x408ee0
  402db9:	83 c4 18             	add    esp,0x18
  402dbc:	66 83 7d fc 10       	cmp    WORD PTR [ebp-0x4],0x10
  402dc1:	0f 87 eb 02 00 00    	ja     0x4030b2
  402dc7:	0f b7 45 fc          	movzx  eax,WORD PTR [ebp-0x4]
  402dcb:	89 07                	mov    DWORD PTR [edi],eax
  402dcd:	66 83 7d fc 00       	cmp    WORD PTR [ebp-0x4],0x0
  402dd2:	0f 86 a5 02 00 00    	jbe    0x40307d
  402dd8:	80 65 0b 00          	and    BYTE PTR [ebp+0xb],0x0
  402ddc:	8d 45 dc             	lea    eax,[ebp-0x24]
  402ddf:	6a 04                	push   0x4
  402de1:	50                   	push   eax
  402de2:	ff 15 e0 8e 40 00    	call   DWORD PTR ds:0x408ee0
  402de8:	8d 47 44             	lea    eax,[edi+0x44]
  402deb:	6a 60                	push   0x60
  402ded:	50                   	push   eax
  402dee:	ff 15 e0 8e 40 00    	call   DWORD PTR ds:0x408ee0
  402df4:	8d 87 a4 00 00 00    	lea    eax,[edi+0xa4]
  402dfa:	6a 30                	push   0x30
  402dfc:	50                   	push   eax
  402dfd:	ff 15 e0 8e 40 00    	call   DWORD PTR ds:0x408ee0
  402e03:	8d 87 d4 00 00 00    	lea    eax,[edi+0xd4]
  402e09:	6a 30                	push   0x30
  402e0b:	50                   	push   eax
  402e0c:	ff 15 e0 8e 40 00    	call   DWORD PTR ds:0x408ee0
  402e12:	8d 87 04 01 00 00    	lea    eax,[edi+0x104]
  402e18:	6a 10                	push   0x10
  402e1a:	50                   	push   eax
  402e1b:	ff 15 e0 8e 40 00    	call   DWORD PTR ds:0x408ee0
  402e21:	66 8b 8f 12 01 00 00 	mov    cx,WORD PTR [edi+0x112]
  402e28:	8d 87 12 01 00 00    	lea    eax,[edi+0x112]
  402e2e:	83 c4 28             	add    esp,0x28
  402e31:	66 d1 e1             	shl    cx,1
  402e34:	80 bf 04 01 00 00 02 	cmp    BYTE PTR [edi+0x104],0x2
  402e3b:	66 89 08             	mov    WORD PTR [eax],cx
  402e3e:	73 07                	jae    0x402e47
  402e40:	80 a7 0c 01 00 00 00 	and    BYTE PTR [edi+0x10c],0x0
  402e47:	80 bf 05 01 00 00 02 	cmp    BYTE PTR [edi+0x105],0x2
  402e4e:	73 07                	jae    0x402e57
  402e50:	80 a7 0d 01 00 00 00 	and    BYTE PTR [edi+0x10d],0x0
  402e57:	33 ff                	xor    edi,edi
  402e59:	57                   	push   edi
  402e5a:	56                   	push   esi
  402e5b:	ff 15 6c 9f 40 00    	call   DWORD PTR ds:0x409f6c
  402e61:	66 39 7d fc          	cmp    WORD PTR [ebp-0x4],di
  402e65:	59                   	pop    ecx
  402e66:	59                   	pop    ecx
  402e67:	89 7d f8             	mov    DWORD PTR [ebp-0x8],edi
  402e6a:	0f 86 09 01 00 00    	jbe    0x402f79
  402e70:	8b 45 e8             	mov    eax,DWORD PTR [ebp-0x18]
  402e73:	83 c0 04             	add    eax,0x4
  402e76:	89 45 e4             	mov    DWORD PTR [ebp-0x1c],eax
  402e79:	6a 19                	push   0x19
  402e7b:	6a 40                	push   0x40
  402e7d:	ff 15 2c 10 40 00    	call   DWORD PTR ds:0x40102c
  402e83:	8b f0                	mov    esi,eax
  402e85:	8b 45 e4             	mov    eax,DWORD PTR [ebp-0x1c]
  402e88:	6a 0e                	push   0xe
  402e8a:	8d 7e 04             	lea    edi,[esi+0x4]
  402e8d:	89 30                	mov    DWORD PTR [eax],esi
  402e8f:	57                   	push   edi
  402e90:	ff 15 e0 8e 40 00    	call   DWORD PTR ds:0x408ee0
  402e96:	8d 45 ff             	lea    eax,[ebp-0x1]
  402e99:	6a 01                	push   0x1
  402e9b:	50                   	push   eax
  402e9c:	c6 46 17 01          	mov    BYTE PTR [esi+0x17],0x1
  402ea0:	c6 46 16 08          	mov    BYTE PTR [esi+0x16],0x8
  402ea4:	ff 15 e0 8e 40 00    	call   DWORD PTR ds:0x408ee0
  402eaa:	83 c4 10             	add    esp,0x10
  402ead:	f6 45 ff 01          	test   BYTE PTR [ebp-0x1],0x1
  402eb1:	74 0a                	je     0x402ebd
  402eb3:	8a 46 17             	mov    al,BYTE PTR [esi+0x17]
  402eb6:	24 fe                	and    al,0xfe
  402eb8:	0c 02                	or     al,0x2
  402eba:	88 46 17             	mov    BYTE PTR [esi+0x17],al
  402ebd:	f6 45 ff 02          	test   BYTE PTR [ebp-0x1],0x2
  402ec1:	74 0a                	je     0x402ecd
  402ec3:	8a 46 17             	mov    al,BYTE PTR [esi+0x17]
  402ec6:	24 fc                	and    al,0xfc
  402ec8:	0c 04                	or     al,0x4
  402eca:	88 46 17             	mov    BYTE PTR [esi+0x17],al
  402ecd:	f6 45 ff 10          	test   BYTE PTR [ebp-0x1],0x10
  402ed1:	74 04                	je     0x402ed7
  402ed3:	c6 46 16 10          	mov    BYTE PTR [esi+0x16],0x10
  402ed7:	f6 46 17 01          	test   BYTE PTR [esi+0x17],0x1
  402edb:	74 09                	je     0x402ee6
  402edd:	8b 07                	mov    eax,DWORD PTR [edi]
  402edf:	83 66 08 00          	and    DWORD PTR [esi+0x8],0x0
  402ee3:	89 46 0c             	mov    DWORD PTR [esi+0xc],eax
  402ee6:	80 7e 16 10          	cmp    BYTE PTR [esi+0x16],0x10
  402eea:	75 08                	jne    0x402ef4
  402eec:	d1 2f                	shr    DWORD PTR [edi],1
  402eee:	d1 6e 08             	shr    DWORD PTR [esi+0x8],1
  402ef1:	d1 6e 0c             	shr    DWORD PTR [esi+0xc],1
  402ef4:	83 7e 0c 00          	cmp    DWORD PTR [esi+0xc],0x0
  402ef8:	75 0d                	jne    0x402f07
  402efa:	8b 07                	mov    eax,DWORD PTR [edi]
  402efc:	83 66 08 00          	and    DWORD PTR [esi+0x8],0x0
  402f00:	89 46 0c             	mov    DWORD PTR [esi+0xc],eax
  402f03:	c6 46 17 01          	mov    BYTE PTR [esi+0x17],0x1
  402f07:	8d 45 0b             	lea    eax,[ebp+0xb]
  402f0a:	6a 01                	push   0x1
  402f0c:	50                   	push   eax
  402f0d:	ff 15 e0 8e 40 00    	call   DWORD PTR ds:0x408ee0
  402f13:	0f b6 45 0b          	movzx  eax,BYTE PTR [ebp+0xb]
  402f17:	89 46 12             	mov    DWORD PTR [esi+0x12],eax
  402f1a:	8d 45 0b             	lea    eax,[ebp+0xb]
  402f1d:	6a 01                	push   0x1
  402f1f:	50                   	push   eax
  402f20:	ff 15 e0 8e 40 00    	call   DWORD PTR ds:0x408ee0
  402f26:	8a 45 0b             	mov    al,BYTE PTR [ebp+0xb]
  402f29:	6a 01                	push   0x1
  402f2b:	6a 17                	push   0x17
  402f2d:	88 46 18             	mov    BYTE PTR [esi+0x18],al
  402f30:	ff 15 6c 9f 40 00    	call   DWORD PTR ds:0x409f6c
  402f36:	8b 3f                	mov    edi,DWORD PTR [edi]
  402f38:	8b 06                	mov    eax,DWORD PTR [esi]
  402f3a:	83 c4 18             	add    esp,0x18
  402f3d:	d1 e7                	shl    edi,1
  402f3f:	85 c0                	test   eax,eax
  402f41:	74 07                	je     0x402f4a
  402f43:	50                   	push   eax
  402f44:	ff 15 30 10 40 00    	call   DWORD PTR ds:0x401030
  402f4a:	83 26 00             	and    DWORD PTR [esi],0x0
  402f4d:	85 ff                	test   edi,edi
  402f4f:	74 0e                	je     0x402f5f
  402f51:	83 c7 10             	add    edi,0x10
  402f54:	57                   	push   edi
  402f55:	6a 40                	push   0x40
  402f57:	ff 15 2c 10 40 00    	call   DWORD PTR ds:0x40102c
  402f5d:	89 06                	mov    DWORD PTR [esi],eax
  402f5f:	0f b7 45 fc          	movzx  eax,WORD PTR [ebp-0x4]
  402f63:	ff 45 f8             	inc    DWORD PTR [ebp-0x8]
  402f66:	83 45 e4 04          	add    DWORD PTR [ebp-0x1c],0x4
  402f6a:	39 45 f8             	cmp    DWORD PTR [ebp-0x8],eax
  402f6d:	0f 82 06 ff ff ff    	jb     0x402e79
  402f73:	83 7d f8 10          	cmp    DWORD PTR [ebp-0x8],0x10
  402f77:	73 16                	jae    0x402f8f
  402f79:	8b 4d e8             	mov    ecx,DWORD PTR [ebp-0x18]
  402f7c:	8b 45 f8             	mov    eax,DWORD PTR [ebp-0x8]
  402f7f:	6a 10                	push   0x10
  402f81:	8d 7c 81 04          	lea    edi,[ecx+eax*4+0x4]
  402f85:	59                   	pop    ecx
  402f86:	2b c8                	sub    ecx,eax
  402f88:	b8 c0 8e 40 00       	mov    eax,0x408ec0
  402f8d:	f3 ab                	rep stos DWORD PTR es:[edi],eax
  402f8f:	83 65 f8 00          	and    DWORD PTR [ebp-0x8],0x0
  402f93:	66 83 7d fc 00       	cmp    WORD PTR [ebp-0x4],0x0
  402f98:	0f 86 fa 00 00 00    	jbe    0x403098
  402f9e:	8b 45 e8             	mov    eax,DWORD PTR [ebp-0x18]
  402fa1:	83 c0 04             	add    eax,0x4
  402fa4:	89 45 e8             	mov    DWORD PTR [ebp-0x18],eax
  402fa7:	8b 45 e8             	mov    eax,DWORD PTR [ebp-0x18]
  402faa:	8b 30                	mov    esi,DWORD PTR [eax]
  402fac:	0f b6 7e 16          	movzx  edi,BYTE PTR [esi+0x16]
  402fb0:	8b 46 04             	mov    eax,DWORD PTR [esi+0x4]
  402fb3:	0f af f8             	imul   edi,eax
  402fb6:	c1 ef 03             	shr    edi,0x3
  402fb9:	85 c0                	test   eax,eax
  402fbb:	0f 84 a6 00 00 00    	je     0x403067
  402fc1:	8d 44 00 10          	lea    eax,[eax+eax*1+0x10]
  402fc5:	50                   	push   eax
  402fc6:	6a 40                	push   0x40
  402fc8:	ff 15 2c 10 40 00    	call   DWORD PTR ds:0x40102c
  402fce:	57                   	push   edi
  402fcf:	50                   	push   eax
  402fd0:	89 45 e4             	mov    DWORD PTR [ebp-0x1c],eax
  402fd3:	ff 15 e0 8e 40 00    	call   DWORD PTR ds:0x408ee0
  402fd9:	80 7e 16 08          	cmp    BYTE PTR [esi+0x16],0x8
  402fdd:	59                   	pop    ecx
  402fde:	59                   	pop    ecx
  402fdf:	75 2b                	jne    0x40300c
  402fe1:	8b 3e                	mov    edi,DWORD PTR [esi]
  402fe3:	33 c0                	xor    eax,eax
  402fe5:	39 46 04             	cmp    DWORD PTR [esi+0x4],eax
  402fe8:	7e 13                	jle    0x402ffd
  402fea:	8b 55 e4             	mov    edx,DWORD PTR [ebp-0x1c]
  402fed:	33 c9                	xor    ecx,ecx
  402fef:	8a 2c 10             	mov    ch,BYTE PTR [eax+edx*1]
  402ff2:	66 89 0f             	mov    WORD PTR [edi],cx
  402ff5:	47                   	inc    edi
  402ff6:	47                   	inc    edi
  402ff7:	40                   	inc    eax
  402ff8:	3b 46 04             	cmp    eax,DWORD PTR [esi+0x4]
  402ffb:	7c ed                	jl     0x402fea
  402ffd:	ff 75 e4             	push   DWORD PTR [ebp-0x1c]
  403000:	c6 46 16 10          	mov    BYTE PTR [esi+0x16],0x10
  403004:	ff 15 30 10 40 00    	call   DWORD PTR ds:0x401030
  40300a:	eb 0d                	jmp    0x403019
  40300c:	ff 36                	push   DWORD PTR [esi]
  40300e:	ff 15 30 10 40 00    	call   DWORD PTR ds:0x401030
  403014:	8b 45 e4             	mov    eax,DWORD PTR [ebp-0x1c]
  403017:	89 06                	mov    DWORD PTR [esi],eax
  403019:	8b 0e                	mov    ecx,DWORD PTR [esi]
  40301b:	33 ff                	xor    edi,edi
  40301d:	33 d2                	xor    edx,edx
  40301f:	39 7e 04             	cmp    DWORD PTR [esi+0x4],edi
  403022:	76 12                	jbe    0x403036
  403024:	0f b7 01             	movzx  eax,WORD PTR [ecx]
  403027:	03 c7                	add    eax,edi
  403029:	66 89 01             	mov    WORD PTR [ecx],ax
  40302c:	41                   	inc    ecx
  40302d:	41                   	inc    ecx
  40302e:	42                   	inc    edx
  40302f:	3b 56 04             	cmp    edx,DWORD PTR [esi+0x4]
  403032:	8b f8                	mov    edi,eax
  403034:	72 ee                	jb     0x403024
  403036:	8a 4e 17             	mov    cl,BYTE PTR [esi+0x17]
  403039:	8b 06                	mov    eax,DWORD PTR [esi]
  40303b:	80 f9 04             	cmp    cl,0x4
  40303e:	75 12                	jne    0x403052
  403040:	8b 4e 0c             	mov    ecx,DWORD PTR [esi+0xc]
  403043:	03 4e 08             	add    ecx,DWORD PTR [esi+0x8]
  403046:	8d 04 48             	lea    eax,[eax+ecx*2]
  403049:	66 8b 48 fe          	mov    cx,WORD PTR [eax-0x2]
  40304d:	66 89 08             	mov    WORD PTR [eax],cx
  403050:	eb 15                	jmp    0x403067
  403052:	80 f9 02             	cmp    cl,0x2
  403055:	75 10                	jne    0x403067
  403057:	8b 4e 08             	mov    ecx,DWORD PTR [esi+0x8]
  40305a:	8b 56 0c             	mov    edx,DWORD PTR [esi+0xc]
  40305d:	03 d1                	add    edx,ecx
  40305f:	66 8b 0c 48          	mov    cx,WORD PTR [eax+ecx*2]
  403063:	66 89 0c 50          	mov    WORD PTR [eax+edx*2],cx
  403067:	0f b7 45 fc          	movzx  eax,WORD PTR [ebp-0x4]
  40306b:	ff 45 f8             	inc    DWORD PTR [ebp-0x8]
  40306e:	83 45 e8 04          	add    DWORD PTR [ebp-0x18],0x4
  403072:	39 45 f8             	cmp    DWORD PTR [ebp-0x8],eax
  403075:	0f 82 2c ff ff ff    	jb     0x402fa7
  40307b:	eb 1b                	jmp    0x403098
  40307d:	8b 45 e8             	mov    eax,DWORD PTR [ebp-0x18]
  403080:	6a 10                	push   0x10
  403082:	59                   	pop    ecx
  403083:	8d 78 04             	lea    edi,[eax+0x4]
  403086:	b8 c0 8e 40 00       	mov    eax,0x408ec0
  40308b:	6a 00                	push   0x0
  40308d:	56                   	push   esi
  40308e:	f3 ab                	rep stos DWORD PTR es:[edi],eax
  403090:	ff 15 6c 9f 40 00    	call   DWORD PTR ds:0x409f6c
  403096:	59                   	pop    ecx
  403097:	59                   	pop    ecx
  403098:	8b 45 f4             	mov    eax,DWORD PTR [ebp-0xc]
  40309b:	0f bf 4b 1e          	movsx  ecx,WORD PTR [ebx+0x1e]
  40309f:	40                   	inc    eax
  4030a0:	3b c1                	cmp    eax,ecx
  4030a2:	89 45 f4             	mov    DWORD PTR [ebp-0xc],eax
  4030a5:	0f 8c d3 fc ff ff    	jl     0x402d7e
  4030ab:	b0 01                	mov    al,0x1
  4030ad:	5f                   	pop    edi
  4030ae:	5e                   	pop    esi
  4030af:	5b                   	pop    ebx
  4030b0:	c9                   	leave  
  4030b1:	c3                   	ret


    
  4030b2:	32 c0                	xor    al,al
  4030b4:	eb f7                	jmp    0x4030ad
  4030b6:	55                   	push   ebp
  4030b7:	8b ec                	mov    ebp,esp
  4030b9:	83 ec 1c             	sub    esp,0x1c
  4030bc:	a1 e8 8e 40 00       	mov    eax,ds:0x408ee8
  4030c1:	53                   	push   ebx
  4030c2:	bb 74 03 00 00       	mov    ebx,0x374
  4030c7:	33 d2                	xor    edx,edx
  4030c9:	8b cb                	mov    ecx,ebx
  4030cb:	56                   	push   esi
  4030cc:	f7 f1                	div    ecx
  4030ce:	8b 35 14 39 40 00    	mov    esi,DWORD PTR ds:0x403914
  4030d4:	57                   	push   edi
  4030d5:	69 f6 74 03 00 00    	imul   esi,esi,0x374
  4030db:	b9 e8 06 00 00       	mov    ecx,0x6e8
  4030e0:	89 45 e4             	mov    DWORD PTR [ebp-0x1c],eax
  4030e3:	a1 e4 8e 40 00       	mov    eax,ds:0x408ee4
  4030e8:	8d 14 f0             	lea    edx,[eax+esi*8]
  4030eb:	33 c0                	xor    eax,eax
  4030ed:	21 45 f8             	and    DWORD PTR [ebp-0x8],eax
  4030f0:	8b fa                	mov    edi,edx
  4030f2:	f3 ab                	rep stos DWORD PTR es:[edi],eax
  4030f4:	a1 00 39 40 00       	mov    eax,ds:0x403900
  4030f9:	89 55 e8             	mov    DWORD PTR [ebp-0x18],edx
  4030fc:	89 55 f4             	mov    DWORD PTR [ebp-0xc],edx
  4030ff:	8b 40 08             	mov    eax,DWORD PTR [eax+0x8]
  403102:	89 45 fc             	mov    DWORD PTR [ebp-0x4],eax
  403105:	8b 7d fc             	mov    edi,DWORD PTR [ebp-0x4]
  403108:	85 ff                	test   edi,edi
  40310a:	75 1c                	jne    0x403128
  40310c:	ff 35 00 39 40 00    	push   DWORD PTR ds:0x403900
  403112:	e8 3a f9 ff ff       	call   0x402a51
  403117:	a1 00 39 40 00       	mov    eax,ds:0x403900
  40311c:	59                   	pop    ecx
  40311d:	8b 78 0c             	mov    edi,DWORD PTR [eax+0xc]
  403120:	89 7d f0             	mov    DWORD PTR [ebp-0x10],edi
  403123:	89 7d fc             	mov    DWORD PTR [ebp-0x4],edi
  403126:	eb 03                	jmp    0x40312b
  403128:	89 7d f0             	mov    DWORD PTR [ebp-0x10],edi
  40312b:	8b 45 f8             	mov    eax,DWORD PTR [ebp-0x8]
  40312e:	8d 0c 07             	lea    ecx,[edi+eax*1]
  403131:	3b cb                	cmp    ecx,ebx
  403133:	76 07                	jbe    0x40313c
  403135:	8b fb                	mov    edi,ebx
  403137:	2b f8                	sub    edi,eax
  403139:	89 7d f0             	mov    DWORD PTR [ebp-0x10],edi
  40313c:	6a 00                	push   0x0
  40313e:	57                   	push   edi
  40313f:	ff 75 f4             	push   DWORD PTR [ebp-0xc]
  403142:	e8 98 01 00 00       	call   0x4032df
  403147:	db 45 f0             	fild   DWORD PTR [ebp-0x10]
  40314a:	8b 45 f4             	mov    eax,DWORD PTR [ebp-0xc]
  40314d:	01 7d f8             	add    DWORD PTR [ebp-0x8],edi
  403150:	29 7d fc             	sub    DWORD PTR [ebp-0x4],edi
  403153:	83 c4 0c             	add    esp,0xc
  403156:	d8 0d 78 10 40 00    	fmul   DWORD PTR ds:0x401078
  40315c:	8d 04 f8             	lea    eax,[eax+edi*8]
  40315f:	89 45 f4             	mov    DWORD PTR [ebp-0xc],eax
  403162:	a1 00 39 40 00       	mov    eax,ds:0x403900
  403167:	df 7d ec             	fistp  QWORD PTR [ebp-0x14]
  40316a:	8b 4d ec             	mov    ecx,DWORD PTR [ebp-0x14]
  40316d:	01 88 46 01 00 00    	add    DWORD PTR [eax+0x146],ecx
  403173:	39 5d f8             	cmp    DWORD PTR [ebp-0x8],ebx
  403176:	72 8d                	jb     0x403105
  403178:	a1 14 39 40 00       	mov    eax,ds:0x403914
  40317d:	8b 0d 00 39 40 00    	mov    ecx,DWORD PTR ds:0x403900
  403183:	8b 15 08 39 40 00    	mov    edx,DWORD PTR ds:0x403908
  403189:	bf e8 06 00 00       	mov    edi,0x6e8
  40318e:	8b 89 46 01 00 00    	mov    ecx,DWORD PTR [ecx+0x146]
  403194:	8d 04 40             	lea    eax,[eax+eax*2]
  403197:	89 4c 42 02          	mov    DWORD PTR [edx+eax*2+0x2],ecx
  40319b:	a1 14 39 40 00       	mov    eax,ds:0x403914
  4031a0:	8b 0d 00 39 40 00    	mov    ecx,DWORD PTR ds:0x403900
  4031a6:	8b 15 08 39 40 00    	mov    edx,DWORD PTR ds:0x403908
  4031ac:	8d 04 40             	lea    eax,[eax+eax*2]
  4031af:	8a 89 32 01 00 00    	mov    cl,BYTE PTR [ecx+0x132]
  4031b5:	88 4c 42 01          	mov    BYTE PTR [edx+eax*2+0x1],cl
  4031b9:	a1 14 39 40 00       	mov    eax,ds:0x403914
  4031be:	8b 0d 00 39 40 00    	mov    ecx,DWORD PTR ds:0x403900
  4031c4:	8b 15 08 39 40 00    	mov    edx,DWORD PTR ds:0x403908
  4031ca:	8d 04 40             	lea    eax,[eax+eax*2]
  4031cd:	8a 89 36 01 00 00    	mov    cl,BYTE PTR [ecx+0x136]
  4031d3:	88 0c 42             	mov    BYTE PTR [edx+eax*2],cl
  4031d6:	a1 00 39 40 00       	mov    eax,ds:0x403900
  4031db:	8b 4d fc             	mov    ecx,DWORD PTR [ebp-0x4]
  4031de:	ba ff 7f 00 00       	mov    edx,0x7fff
  4031e3:	89 48 08             	mov    DWORD PTR [eax+0x8],ecx
  4031e6:	a1 80 39 40 00       	mov    eax,ds:0x403980
  4031eb:	8d 0c b0             	lea    ecx,[eax+esi*4]
  4031ee:	be 00 80 ff ff       	mov    esi,0xffff8000
  4031f3:	8b 45 e8             	mov    eax,DWORD PTR [ebp-0x18]
  4031f6:	d9 00                	fld    DWORD PTR [eax]
  4031f8:	83 45 e8 04          	add    DWORD PTR [ebp-0x18],0x4
  4031fc:	db 5d f0             	fistp  DWORD PTR [ebp-0x10]
  4031ff:	8b 45 f0             	mov    eax,DWORD PTR [ebp-0x10]
  403202:	3b c6                	cmp    eax,esi
  403204:	7d 04                	jge    0x40320a
  403206:	8b c6                	mov    eax,esi
  403208:	eb 06                	jmp    0x403210
  40320a:	3b c2                	cmp    eax,edx
  40320c:	7e 02                	jle    0x403210
  40320e:	8b c2                	mov    eax,edx
  403210:	66 89 01             	mov    WORD PTR [ecx],ax
  403213:	41                   	inc    ecx
  403214:	41                   	inc    ecx
  403215:	4f                   	dec    edi
  403216:	75 db                	jne    0x4031f3
  403218:	ff 05 14 39 40 00    	inc    DWORD PTR ds:0x403914
  40321e:	a1 14 39 40 00       	mov    eax,ds:0x403914
  403223:	3b 45 e4             	cmp    eax,DWORD PTR [ebp-0x1c]
  403226:	5f                   	pop    edi
  403227:	5e                   	pop    esi
  403228:	5b                   	pop    ebx
  403229:	7c 07                	jl     0x403232
  40322b:	83 25 14 39 40 00 00 	and    DWORD PTR ds:0x403914,0x0
  403232:	c9                   	leave  
  403233:	c3                   	ret


    
  403234:	55                   	push   ebp
  403235:	8b ec                	mov    ebp,esp
  403237:	83 ec 0c             	sub    esp,0xc
  40323a:	a1 e8 8e 40 00       	mov    eax,ds:0x408ee8
  40323f:	33 d2                	xor    edx,edx
  403241:	b9 74 03 00 00       	mov    ecx,0x374
  403246:	fe 05 11 39 40 00    	inc    BYTE PTR ds:0x403911
  40324c:	f7 f1                	div    ecx
  40324e:	53                   	push   ebx
  40324f:	33 db                	xor    ebx,ebx
  403251:	38 1d 04 39 40 00    	cmp    BYTE PTR ds:0x403904,bl
  403257:	57                   	push   edi
  403258:	8b f8                	mov    edi,eax
  40325a:	75 75                	jne    0x4032d1
  40325c:	56                   	push   esi
  40325d:	8d 45 f4             	lea    eax,[ebp-0xc]
  403260:	6a 0c                	push   0xc
  403262:	50                   	push   eax
  403263:	c7 45 f4 04 00 00 00 	mov    DWORD PTR [ebp-0xc],0x4
  40326a:	ff 35 84 39 40 00    	push   DWORD PTR ds:0x403984
  403270:	ff 15 04 10 40 00    	call   DWORD PTR ds:0x401004
  403276:	c1 6d f8 02          	shr    DWORD PTR [ebp-0x8],0x2
  40327a:	8b 45 f8             	mov    eax,DWORD PTR [ebp-0x8]
  40327d:	b9 74 03 00 00       	mov    ecx,0x374
  403282:	99                   	cdq    
  403283:	f7 3d e8 8e 40 00    	idiv   DWORD PTR ds:0x408ee8
  403289:	8b c2                	mov    eax,edx
  40328b:	33 d2                	xor    edx,edx
  40328d:	f7 f1                	div    ecx
  40328f:	8b f0                	mov    esi,eax
  403291:	39 35 14 39 40 00    	cmp    DWORD PTR ds:0x403914,esi
  403297:	74 27                	je     0x4032c0
  403299:	fe 05 10 39 40 00    	inc    BYTE PTR ds:0x403910
  40329f:	e8 12 fe ff ff       	call   0x4030b6
  4032a4:	ff 05 5c 39 40 00    	inc    DWORD PTR ds:0x40395c
  4032aa:	39 3d 5c 39 40 00    	cmp    DWORD PTR ds:0x40395c,edi
  4032b0:	7c 06                	jl     0x4032b8
  4032b2:	89 1d 5c 39 40 00    	mov    DWORD PTR ds:0x40395c,ebx
  4032b8:	88 1d 10 39 40 00    	mov    BYTE PTR ds:0x403910,bl
  4032be:	eb d1                	jmp    0x403291
  4032c0:	6a 05                	push   0x5
  4032c2:	ff 15 34 10 40 00    	call   DWORD PTR ds:0x401034
  4032c8:	38 1d 04 39 40 00    	cmp    BYTE PTR ds:0x403904,bl
  4032ce:	74 8d                	je     0x40325d
  4032d0:	5e                   	pop    esi
  4032d1:	88 1d 11 39 40 00    	mov    BYTE PTR ds:0x403911,bl
  4032d7:	5f                   	pop    edi
  4032d8:	33 c0                	xor    eax,eax
  4032da:	5b                   	pop    ebx
  4032db:	c9                   	leave  
  4032dc:	c2 04 00             	ret


    0x4
  4032df:	55                   	push   ebp
  4032e0:	8b ec                	mov    ebp,esp
  4032e2:	51                   	push   ecx
  4032e3:	8b 45 0c             	mov    eax,DWORD PTR [ebp+0xc]
  4032e6:	8b 4d 08             	mov    ecx,DWORD PTR [ebp+0x8]
  4032e9:	a3 28 39 40 00       	mov    ds:0x403928,eax
  4032ee:	53                   	push   ebx
  4032ef:	8d 04 c1             	lea    eax,[ecx+eax*8]
  4032f2:	56                   	push   esi
  4032f3:	57                   	push   edi
  4032f4:	a3 58 39 40 00       	mov    ds:0x403958,eax
  4032f9:	c7 45 0c a0 39 40 00 	mov    DWORD PTR [ebp+0xc],0x4039a0
  403300:	8b 45 0c             	mov    eax,DWORD PTR [ebp+0xc]
  403303:	89 45 fc             	mov    DWORD PTR [ebp-0x4],eax
  403306:	8b 5d 08             	mov    ebx,DWORD PTR [ebp+0x8]
  403309:	55                   	push   ebp
  40330a:	89 1d 50 39 40 00    	mov    DWORD PTR ds:0x403950,ebx
  403310:	8b 4d fc             	mov    ecx,DWORD PTR [ebp-0x4]
  403313:	85 c9                	test   ecx,ecx
  403315:	0f 84 bb 05 00 00    	je     0x4038d6
  40331b:	89 0d 4c 39 40 00    	mov    DWORD PTR ds:0x40394c,ecx
  403321:	8b 59 18             	mov    ebx,DWORD PTR [ecx+0x18]
  403324:	89 1d 48 39 40 00    	mov    DWORD PTR ds:0x403948,ebx
  40332a:	85 db                	test   ebx,ebx
  40332c:	0f 84 a4 05 00 00    	je     0x4038d6
  403332:	8b 03                	mov    eax,DWORD PTR [ebx]
  403334:	a3 20 39 40 00       	mov    ds:0x403920,eax
  403339:	a1 28 39 40 00       	mov    eax,ds:0x403928
  40333e:	a3 30 39 40 00       	mov    ds:0x403930,eax
  403343:	8b 71 24             	mov    esi,DWORD PTR [ecx+0x24]
  403346:	33 ed                	xor    ebp,ebp
  403348:	89 2d 24 39 40 00    	mov    DWORD PTR ds:0x403924,ebp
  40334e:	83 79 34 01          	cmp    DWORD PTR [ecx+0x34],0x1
  403352:	75 1d                	jne    0x403371
  403354:	8b 53 08             	mov    edx,DWORD PTR [ebx+0x8]
  403357:	03 53 0c             	add    edx,DWORD PTR [ebx+0xc]
  40335a:	3b f2                	cmp    esi,edx
  40335c:	7e 03                	jle    0x403361
  40335e:	8b 53 04             	mov    edx,DWORD PTR [ebx+0x4]
  403361:	2b d6                	sub    edx,esi
  403363:	8b 41 28             	mov    eax,DWORD PTR [ecx+0x28]
  403366:	33 ed                	xor    ebp,ebp
  403368:	2b e8                	sub    ebp,eax
  40336a:	83 da 00             	sbb    edx,0x0
  40336d:	8b c5                	mov    eax,ebp
  40336f:	eb 0c                	jmp    0x40337d
  403371:	8b 51 24             	mov    edx,DWORD PTR [ecx+0x24]
  403374:	8b 41 28             	mov    eax,DWORD PTR [ecx+0x28]
  403377:	83 e8 00             	sub    eax,0x0
  40337a:	1b 53 08             	sbb    edx,DWORD PTR [ebx+0x8]
  40337d:	81 fa 00 00 00 01    	cmp    edx,0x1000000
  403383:	73 47                	jae    0x4033cc
  403385:	0f ac d0 08          	shrd   eax,edx,0x8
  403389:	c1 ea 08             	shr    edx,0x8
  40338c:	8b 69 30             	mov    ebp,DWORD PTR [ecx+0x30]
  40338f:	8b 79 2c             	mov    edi,DWORD PTR [ecx+0x2c]
  403392:	85 ed                	test   ebp,ebp
  403394:	75 09                	jne    0x40339f
  403396:	85 ff                	test   edi,edi
  403398:	75 05                	jne    0x40339f
  40339a:	bf 8c 6f 7c 01       	mov    edi,0x17c6f8c
  40339f:	c1 e5 18             	shl    ebp,0x18
  4033a2:	c1 ef 08             	shr    edi,0x8
  4033a5:	81 e7 ff ff ff 00    	and    edi,0xffffff
  4033ab:	0b ef                	or     ebp,edi
  4033ad:	f7 f5                	div    ebp
  4033af:	85 d2                	test   edx,edx
  4033b1:	74 01                	je     0x4033b4
  4033b3:	40                   	inc    eax
  4033b4:	3b 05 30 39 40 00    	cmp    eax,DWORD PTR ds:0x403930
  4033ba:	77 10                	ja     0x4033cc
  4033bc:	a3 30 39 40 00       	mov    ds:0x403930,eax
  4033c1:	ba 01 00 00 00       	mov    edx,0x1
  4033c6:	89 15 24 39 40 00    	mov    DWORD PTR ds:0x403924,edx
  4033cc:	8b 1d 48 39 40 00    	mov    ebx,DWORD PTR ds:0x403948
  4033d2:	8b 0d 4c 39 40 00    	mov    ecx,DWORD PTR ds:0x40394c
  4033d8:	83 25 40 39 40 00 00 	and    DWORD PTR ds:0x403940,0x0
  4033df:	83 25 34 39 40 00 00 	and    DWORD PTR ds:0x403934,0x0
  4033e6:	a1 30 39 40 00       	mov    eax,ds:0x403930
  4033eb:	a3 38 39 40 00       	mov    ds:0x403938,eax
  4033f0:	83 25 54 39 40 00 00 	and    DWORD PTR ds:0x403954,0x0
  4033f7:	83 79 50 00          	cmp    DWORD PTR [ecx+0x50],0x0
  4033fb:	74 2e                	je     0x40342b
  4033fd:	8b 41 1c             	mov    eax,DWORD PTR [ecx+0x1c]
  403400:	8b 51 38             	mov    edx,DWORD PTR [ecx+0x38]
  403403:	3b c2                	cmp    eax,edx
  403405:	75 24                	jne    0x40342b
  403407:	8b 41 20             	mov    eax,DWORD PTR [ecx+0x20]
  40340a:	8b 51 3c             	mov    edx,DWORD PTR [ecx+0x3c]
  40340d:	3b c2                	cmp    eax,edx
  40340f:	75 1a                	jne    0x40342b
  403411:	8b 41 50             	mov    eax,DWORD PTR [ecx+0x50]
  403414:	a3 54 39 40 00       	mov    ds:0x403954,eax
  403419:	8b 41 48             	mov    eax,DWORD PTR [ecx+0x48]
  40341c:	a3 40 39 40 00       	mov    ds:0x403940,eax
  403421:	8b 41 4c             	mov    eax,DWORD PTR [ecx+0x4c]
  403424:	a3 34 39 40 00       	mov    ds:0x403934,eax
  403429:	eb 7e                	jmp    0x4034a9
  40342b:	8b 41 1c             	mov    eax,DWORD PTR [ecx+0x1c]
  40342e:	8b 51 40             	mov    edx,DWORD PTR [ecx+0x40]
  403431:	c1 ea 08             	shr    edx,0x8
  403434:	89 41 38             	mov    DWORD PTR [ecx+0x38],eax
  403437:	2b c2                	sub    eax,edx
  403439:	74 2f                	je     0x40346a
  40343b:	a3 18 39 40 00       	mov    ds:0x403918,eax
  403440:	db 05 18 39 40 00    	fild   DWORD PTR ds:0x403918
  403446:	d8 0d 7c 10 40 00    	fmul   DWORD PTR ds:0x40107c
  40344c:	d8 0d 88 10 40 00    	fmul   DWORD PTR ds:0x401088
  403452:	d9 1d 40 39 40 00    	fstp   DWORD PTR ds:0x403940
  403458:	a1 40 39 40 00       	mov    eax,ds:0x403940
  40345d:	89 41 48             	mov    DWORD PTR [ecx+0x48],eax
  403460:	b8 80 00 00 00       	mov    eax,0x80
  403465:	a3 54 39 40 00       	mov    ds:0x403954,eax
  40346a:	8b 41 20             	mov    eax,DWORD PTR [ecx+0x20]
  40346d:	8b 51 44             	mov    edx,DWORD PTR [ecx+0x44]
  403470:	c1 ea 08             	shr    edx,0x8
  403473:	89 41 3c             	mov    DWORD PTR [ecx+0x3c],eax
  403476:	2b c2                	sub    eax,edx
  403478:	74 2f                	je     0x4034a9
  40347a:	a3 18 39 40 00       	mov    ds:0x403918,eax
  40347f:	db 05 18 39 40 00    	fild   DWORD PTR ds:0x403918
  403485:	d8 0d 7c 10 40 00    	fmul   DWORD PTR ds:0x40107c
  40348b:	d8 0d 88 10 40 00    	fmul   DWORD PTR ds:0x401088
  403491:	d9 1d 34 39 40 00    	fstp   DWORD PTR ds:0x403934
  403497:	a1 34 39 40 00       	mov    eax,ds:0x403934
  40349c:	89 41 4c             	mov    DWORD PTR [ecx+0x4c],eax
  40349f:	b8 80 00 00 00       	mov    eax,0x80
  4034a4:	a3 54 39 40 00       	mov    ds:0x403954,eax
  4034a9:	a1 54 39 40 00       	mov    eax,ds:0x403954
  4034ae:	85 c0                	test   eax,eax
  4034b0:	7e 10                	jle    0x4034c2
  4034b2:	89 41 50             	mov    DWORD PTR [ecx+0x50],eax
  4034b5:	39 05 30 39 40 00    	cmp    DWORD PTR ds:0x403930,eax
  4034bb:	76 05                	jbe    0x4034c2
  4034bd:	a3 30 39 40 00       	mov    ds:0x403930,eax
  4034c2:	8b 0d 4c 39 40 00    	mov    ecx,DWORD PTR ds:0x40394c
  4034c8:	8b 41 20             	mov    eax,DWORD PTR [ecx+0x20]
  4034cb:	a3 18 39 40 00       	mov    ds:0x403918,eax
  4034d0:	db 05 18 39 40 00    	fild   DWORD PTR ds:0x403918
  4034d6:	d8 0d 7c 10 40 00    	fmul   DWORD PTR ds:0x40107c
  4034dc:	d9 1d 2c 39 40 00    	fstp   DWORD PTR ds:0x40392c
  4034e2:	8b 41 1c             	mov    eax,DWORD PTR [ecx+0x1c]
  4034e5:	a3 18 39 40 00       	mov    ds:0x403918,eax
  4034ea:	db 05 18 39 40 00    	fild   DWORD PTR ds:0x403918
  4034f0:	d8 0d 7c 10 40 00    	fmul   DWORD PTR ds:0x40107c
  4034f6:	d9 1d 44 39 40 00    	fstp   DWORD PTR ds:0x403944
  4034fc:	8b 41 44             	mov    eax,DWORD PTR [ecx+0x44]
  4034ff:	a3 18 39 40 00       	mov    ds:0x403918,eax
  403504:	db 05 18 39 40 00    	fild   DWORD PTR ds:0x403918
  40350a:	d8 0d 80 10 40 00    	fmul   DWORD PTR ds:0x401080
  403510:	d8 0d 7c 10 40 00    	fmul   DWORD PTR ds:0x40107c
  403516:	d9 1d 1c 39 40 00    	fstp   DWORD PTR ds:0x40391c
  40351c:	8b 41 40             	mov    eax,DWORD PTR [ecx+0x40]
  40351f:	a3 18 39 40 00       	mov    ds:0x403918,eax
  403524:	db 05 18 39 40 00    	fild   DWORD PTR ds:0x403918
  40352a:	d8 0d 80 10 40 00    	fmul   DWORD PTR ds:0x401080
  403530:	d8 0d 7c 10 40 00    	fmul   DWORD PTR ds:0x40107c
  403536:	d9 1d 3c 39 40 00    	fstp   DWORD PTR ds:0x40393c
  40353c:	a1 4c 39 40 00       	mov    eax,ds:0x40394c
  403541:	8b 58 2c             	mov    ebx,DWORD PTR [eax+0x2c]
  403544:	8b 48 30             	mov    ecx,DWORD PTR [eax+0x30]
  403547:	8b 68 28             	mov    ebp,DWORD PTR [eax+0x28]
  40354a:	8b 70 24             	mov    esi,DWORD PTR [eax+0x24]
  40354d:	8b 3d 50 39 40 00    	mov    edi,DWORD PTR ds:0x403950
  403553:	83 78 34 01          	cmp    DWORD PTR [eax+0x34],0x1
  403557:	74 0c                	je     0x403565
  403559:	83 f3 ff             	xor    ebx,0xffffffff
  40355c:	83 f1 ff             	xor    ecx,0xffffffff
  40355f:	83 c3 01             	add    ebx,0x1
  403562:	83 d1 00             	adc    ecx,0x0
  403565:	a1 20 39 40 00       	mov    eax,ds:0x403920
  40356a:	d1 e8                	shr    eax,1
  40356c:	03 f0                	add    esi,eax
  40356e:	8b 15 30 39 40 00    	mov    edx,DWORD PTR ds:0x403930
  403574:	83 3d 54 39 40 00 00 	cmp    DWORD PTR ds:0x403954,0x0
  40357b:	0f 85 2f 01 00 00    	jne    0x4036b0
  403581:	d1 ea                	shr    edx,1
  403583:	0f 84 1e 01 00 00    	je     0x4036a7
  403589:	d1 ed                	shr    ebp,1
  40358b:	83 c7 10             	add    edi,0x10
  40358e:	df 44 36 02          	fild   WORD PTR [esi+esi*1+0x2]
  403592:	89 2d 18 39 40 00    	mov    DWORD PTR ds:0x403918,ebp
  403598:	df 04 36             	fild   WORD PTR [esi+esi*1]
  40359b:	db 05 18 39 40 00    	fild   DWORD PTR ds:0x403918
  4035a1:	03 ed                	add    ebp,ebp
  4035a3:	03 eb                	add    ebp,ebx
  4035a5:	13 f1                	adc    esi,ecx
  4035a7:	d8 0d 84 10 40 00    	fmul   DWORD PTR ds:0x401084
  4035ad:	df 44 36 02          	fild   WORD PTR [esi+esi*1+0x2]
  4035b1:	d1 ed                	shr    ebp,1
  4035b3:	89 2d 18 39 40 00    	mov    DWORD PTR ds:0x403918,ebp
  4035b9:	db 05 18 39 40 00    	fild   DWORD PTR ds:0x403918
  4035bf:	df 04 36             	fild   WORD PTR [esi+esi*1]
  4035c2:	d9 cd                	fxch   st(5)
  4035c4:	d8 e4                	fsub   st,st(4)
  4035c6:	d1 e5                	shl    ebp,1
  4035c8:	de cb                	fmulp  st(3),st
  4035ca:	d8 0d 84 10 40 00    	fmul   DWORD PTR ds:0x401084
  4035d0:	d9 c9                	fxch   st(1)
  4035d2:	d8 e4                	fsub   st,st(4)
  4035d4:	03 eb                	add    ebp,ebx
  4035d6:	13 f1                	adc    esi,ecx
  4035d8:	de c9                	fmulp  st(1),st
  4035da:	d9 c9                	fxch   st(1)
  4035dc:	de c2                	faddp  st(2),st
  4035de:	d9 c1                	fld    st(1)
  4035e0:	d8 0d 44 39 40 00    	fmul   DWORD PTR ds:0x403944
  4035e6:	d9 c9                	fxch   st(1)
  4035e8:	de c3                	faddp  st(3),st
  4035ea:	d9 c9                	fxch   st(1)
  4035ec:	eb 74                	jmp    0x403662
  4035ee:	d1 ed                	shr    ebp,1
  4035f0:	89 2d 18 39 40 00    	mov    DWORD PTR ds:0x403918,ebp
  4035f6:	df 44 36 02          	fild   WORD PTR [esi+esi*1+0x2]
  4035fa:	df 04 36             	fild   WORD PTR [esi+esi*1]
  4035fd:	db 05 18 39 40 00    	fild   DWORD PTR ds:0x403918
  403603:	03 ed                	add    ebp,ebp
  403605:	03 eb                	add    ebp,ebx
  403607:	13 f1                	adc    esi,ecx
  403609:	83 c7 10             	add    edi,0x10
  40360c:	d8 0d 84 10 40 00    	fmul   DWORD PTR ds:0x401084
  403612:	d1 ed                	shr    ebp,1
  403614:	89 2d 18 39 40 00    	mov    DWORD PTR ds:0x403918,ebp
  40361a:	db 05 18 39 40 00    	fild   DWORD PTR ds:0x403918
  403620:	df 44 36 02          	fild   WORD PTR [esi+esi*1+0x2]
  403624:	d9 cc                	fxch   st(4)
  403626:	d8 e3                	fsub   st,st(3)
  403628:	d1 e5                	shl    ebp,1
  40362a:	de ca                	fmulp  st(2),st
  40362c:	df 04 36             	fild   WORD PTR [esi+esi*1]
  40362f:	d9 c9                	fxch   st(1)
  403631:	d8 0d 84 10 40 00    	fmul   DWORD PTR ds:0x401084
  403637:	d9 cc                	fxch   st(4)
  403639:	d8 e1                	fsub   st,st(1)
  40363b:	03 eb                	add    ebp,ebx
  40363d:	13 f1                	adc    esi,ecx
  40363f:	de cc                	fmulp  st(4),st
  403641:	d9 ca                	fxch   st(2)
  403643:	de c1                	faddp  st(1),st
  403645:	d9 cc                	fxch   st(4)
  403647:	d9 5f e4             	fstp   DWORD PTR [edi-0x1c]
  40364a:	d9 cc                	fxch   st(4)
  40364c:	d9 5f e8             	fstp   DWORD PTR [edi-0x18]
  40364f:	d9 c2                	fld    st(2)
  403651:	d8 0d 44 39 40 00    	fmul   DWORD PTR ds:0x403944
  403657:	d9 c9                	fxch   st(1)
  403659:	de c4                	faddp  st(4),st
  40365b:	d9 c9                	fxch   st(1)
  40365d:	d9 5f ec             	fstp   DWORD PTR [edi-0x14]
  403660:	d9 c9                	fxch   st(1)
  403662:	d8 0d 2c 39 40 00    	fmul   DWORD PTR ds:0x40392c
  403668:	d9 ca                	fxch   st(2)
  40366a:	d9 c0                	fld    st(0)
  40366c:	d8 0d 44 39 40 00    	fmul   DWORD PTR ds:0x403944
  403672:	d9 c9                	fxch   st(1)
  403674:	d8 0d 2c 39 40 00    	fmul   DWORD PTR ds:0x40392c
  40367a:	d9 ca                	fxch   st(2)
  40367c:	d8 47 f0             	fadd   DWORD PTR [edi-0x10]
  40367f:	d9 cb                	fxch   st(3)
  403681:	d8 47 f4             	fadd   DWORD PTR [edi-0xc]
  403684:	d9 c9                	fxch   st(1)
  403686:	d8 47 f8             	fadd   DWORD PTR [edi-0x8]
  403689:	d9 cb                	fxch   st(3)
  40368b:	d9 5f f0             	fstp   DWORD PTR [edi-0x10]
  40368e:	d9 c9                	fxch   st(1)
  403690:	d8 47 fc             	fadd   DWORD PTR [edi-0x4]
  403693:	4a                   	dec    edx
  403694:	0f 85 54 ff ff ff    	jne    0x4035ee
  40369a:	d9 c9                	fxch   st(1)
  40369c:	d9 5f f4             	fstp   DWORD PTR [edi-0xc]
  40369f:	d9 c9                	fxch   st(1)
  4036a1:	d9 5f f8             	fstp   DWORD PTR [edi-0x8]
  4036a4:	d9 5f fc             	fstp   DWORD PTR [edi-0x4]
  4036a7:	8b 15 30 39 40 00    	mov    edx,DWORD PTR ds:0x403930
  4036ad:	83 e2 01             	and    edx,0x1
  4036b0:	85 d2                	test   edx,edx
  4036b2:	0f 84 a5 00 00 00    	je     0x40375d
  4036b8:	d9 05 40 39 40 00    	fld    DWORD PTR ds:0x403940
  4036be:	d9 05 34 39 40 00    	fld    DWORD PTR ds:0x403934
  4036c4:	d9 05 3c 39 40 00    	fld    DWORD PTR ds:0x40393c
  4036ca:	d9 05 1c 39 40 00    	fld    DWORD PTR ds:0x40391c
  4036d0:	eb 00                	jmp    0x4036d2
  4036d2:	d1 ed                	shr    ebp,1
  4036d4:	83 c7 08             	add    edi,0x8
  4036d7:	df 44 36 02          	fild   WORD PTR [esi+esi*1+0x2]
  4036db:	89 2d 18 39 40 00    	mov    DWORD PTR ds:0x403918,ebp
  4036e1:	df 04 36             	fild   WORD PTR [esi+esi*1]
  4036e4:	db 05 18 39 40 00    	fild   DWORD PTR ds:0x403918
  4036ea:	d1 e5                	shl    ebp,1
  4036ec:	03 eb                	add    ebp,ebx
  4036ee:	13 f1                	adc    esi,ecx
  4036f0:	d8 0d 84 10 40 00    	fmul   DWORD PTR ds:0x401084
  4036f6:	d9 ca                	fxch   st(2)
  4036f8:	d8 e1                	fsub   st,st(1)
  4036fa:	de ca                	fmulp  st(2),st
  4036fc:	de c1                	faddp  st(1),st
  4036fe:	d9 c0                	fld    st(0)
  403700:	d8 cb                	fmul   st,st(3)
  403702:	d9 cb                	fxch   st(3)
  403704:	d8 c5                	fadd   st,st(5)
  403706:	d9 c9                	fxch   st(1)
  403708:	d8 ca                	fmul   st,st(2)
  40370a:	d9 ca                	fxch   st(2)
  40370c:	d8 c4                	fadd   st,st(4)
  40370e:	d9 cb                	fxch   st(3)
  403710:	d8 47 f8             	fadd   DWORD PTR [edi-0x8]
  403713:	d9 ca                	fxch   st(2)
  403715:	d8 47 fc             	fadd   DWORD PTR [edi-0x4]
  403718:	d9 ca                	fxch   st(2)
  40371a:	d9 5f f8             	fstp   DWORD PTR [edi-0x8]
  40371d:	d9 c9                	fxch   st(1)
  40371f:	d9 5f fc             	fstp   DWORD PTR [edi-0x4]
  403722:	d9 c9                	fxch   st(1)
  403724:	4a                   	dec    edx
  403725:	75 ab                	jne    0x4036d2
  403727:	d9 ca                	fxch   st(2)
  403729:	d9 1d 34 39 40 00    	fstp   DWORD PTR ds:0x403934
  40372f:	d9 ca                	fxch   st(2)
  403731:	d9 1d 40 39 40 00    	fstp   DWORD PTR ds:0x403940
  403737:	d8 35 7c 10 40 00    	fdiv   DWORD PTR ds:0x40107c
  40373d:	d8 35 80 10 40 00    	fdiv   DWORD PTR ds:0x401080
  403743:	d9 c9                	fxch   st(1)
  403745:	d8 35 7c 10 40 00    	fdiv   DWORD PTR ds:0x40107c
  40374b:	d8 35 80 10 40 00    	fdiv   DWORD PTR ds:0x401080
  403751:	db 1d 3c 39 40 00    	fistp  DWORD PTR ds:0x40393c
  403757:	db 1d 1c 39 40 00    	fistp  DWORD PTR ds:0x40391c
  40375d:	a1 20 39 40 00       	mov    eax,ds:0x403920
  403762:	d1 e8                	shr    eax,1
  403764:	2b f0                	sub    esi,eax
  403766:	83 3d 54 39 40 00 00 	cmp    DWORD PTR ds:0x403954,0x0
  40376d:	0f 84 80 00 00 00    	je     0x4037f3
  403773:	8b 1d 48 39 40 00    	mov    ebx,DWORD PTR ds:0x403948
  403779:	8b 0d 4c 39 40 00    	mov    ecx,DWORD PTR ds:0x40394c
  40377f:	a1 3c 39 40 00       	mov    eax,ds:0x40393c
  403784:	89 41 40             	mov    DWORD PTR [ecx+0x40],eax
  403787:	a1 1c 39 40 00       	mov    eax,ds:0x40391c
  40378c:	89 41 44             	mov    DWORD PTR [ecx+0x44],eax
  40378f:	a1 30 39 40 00       	mov    eax,ds:0x403930
  403794:	8b 15 54 39 40 00    	mov    edx,DWORD PTR ds:0x403954
  40379a:	83 25 40 39 40 00 00 	and    DWORD PTR ds:0x403940,0x0
  4037a1:	83 25 34 39 40 00 00 	and    DWORD PTR ds:0x403934,0x0
  4037a8:	2b d0                	sub    edx,eax
  4037aa:	89 15 54 39 40 00    	mov    DWORD PTR ds:0x403954,edx
  4037b0:	89 51 50             	mov    DWORD PTR [ecx+0x50],edx
  4037b3:	75 3e                	jne    0x4037f3
  4037b5:	83 61 48 00          	and    DWORD PTR [ecx+0x48],0x0
  4037b9:	83 61 4c 00          	and    DWORD PTR [ecx+0x4c],0x0
  4037bd:	8b 51 1c             	mov    edx,DWORD PTR [ecx+0x1c]
  4037c0:	c1 e2 08             	shl    edx,0x8
  4037c3:	89 51 40             	mov    DWORD PTR [ecx+0x40],edx
  4037c6:	8b 51 20             	mov    edx,DWORD PTR [ecx+0x20]
  4037c9:	c1 e2 08             	shl    edx,0x8
  4037cc:	89 51 44             	mov    DWORD PTR [ecx+0x44],edx
  4037cf:	39 05 38 39 40 00    	cmp    DWORD PTR ds:0x403938,eax
  4037d5:	74 1c                	je     0x4037f3
  4037d7:	89 71 24             	mov    DWORD PTR [ecx+0x24],esi
  4037da:	89 69 28             	mov    DWORD PTR [ecx+0x28],ebp
  4037dd:	a1 58 39 40 00       	mov    eax,ds:0x403958
  4037e2:	2b c7                	sub    eax,edi
  4037e4:	c1 e8 03             	shr    eax,0x3
  4037e7:	89 3d 50 39 40 00    	mov    DWORD PTR ds:0x403950,edi
  4037ed:	0f 85 4b fb ff ff    	jne    0x40333e
  4037f3:	83 3d 24 39 40 00 00 	cmp    DWORD PTR ds:0x403924,0x0
  4037fa:	0f 84 ca 00 00 00    	je     0x4038ca
  403800:	8b 1d 48 39 40 00    	mov    ebx,DWORD PTR ds:0x403948
  403806:	8b 0d 4c 39 40 00    	mov    ecx,DWORD PTR ds:0x40394c
  40380c:	8a 53 17             	mov    dl,BYTE PTR [ebx+0x17]
  40380f:	f6 c2 02             	test   dl,0x2
  403812:	74 2e                	je     0x403842
  403814:	8b 43 08             	mov    eax,DWORD PTR [ebx+0x8]
  403817:	03 43 0c             	add    eax,DWORD PTR [ebx+0xc]
  40381a:	2b 73 0c             	sub    esi,DWORD PTR [ebx+0xc]
  40381d:	3b f0                	cmp    esi,eax
  40381f:	73 f9                	jae    0x40381a
  403821:	89 71 24             	mov    DWORD PTR [ecx+0x24],esi
  403824:	89 69 28             	mov    DWORD PTR [ecx+0x28],ebp
  403827:	a1 58 39 40 00       	mov    eax,ds:0x403958
  40382c:	2b c7                	sub    eax,edi
  40382e:	c1 e8 03             	shr    eax,0x3
  403831:	89 3d 50 39 40 00    	mov    DWORD PTR ds:0x403950,edi
  403837:	0f 84 8d 00 00 00    	je     0x4038ca
  40383d:	e9 fc fa ff ff       	jmp    0x40333e
  403842:	f6 c2 04             	test   dl,0x4
  403845:	74 7c                	je     0x4038c3
  403847:	83 79 34 01          	cmp    DWORD PTR [ecx+0x34],0x1
  40384b:	74 2d                	je     0x40387a
  40384d:	8b 43 08             	mov    eax,DWORD PTR [ebx+0x8]
  403850:	48                   	dec    eax
  403851:	ba ff ff ff ff       	mov    edx,0xffffffff
  403856:	2b d5                	sub    edx,ebp
  403858:	1b c6                	sbb    eax,esi
  40385a:	8b f0                	mov    esi,eax
  40385c:	8b ea                	mov    ebp,edx
  40385e:	8b 43 08             	mov    eax,DWORD PTR [ebx+0x8]
  403861:	33 d2                	xor    edx,edx
  403863:	03 ea                	add    ebp,edx
  403865:	13 f0                	adc    esi,eax
  403867:	c7 41 34 01 00 00 00 	mov    DWORD PTR [ecx+0x34],0x1
  40386e:	8b 43 08             	mov    eax,DWORD PTR [ebx+0x8]
  403871:	03 43 0c             	add    eax,DWORD PTR [ebx+0xc]
  403874:	3b f0                	cmp    esi,eax
  403876:	7d 02                	jge    0x40387a
  403878:	eb 2c                	jmp    0x4038a6
  40387a:	8b 43 08             	mov    eax,DWORD PTR [ebx+0x8]
  40387d:	03 43 0c             	add    eax,DWORD PTR [ebx+0xc]
  403880:	33 d2                	xor    edx,edx
  403882:	2b d5                	sub    edx,ebp
  403884:	1b c6                	sbb    eax,esi
  403886:	8b f0                	mov    esi,eax
  403888:	8b ea                	mov    ebp,edx
  40388a:	8b 43 08             	mov    eax,DWORD PTR [ebx+0x8]
  40388d:	03 43 0c             	add    eax,DWORD PTR [ebx+0xc]
  403890:	48                   	dec    eax
  403891:	ba ff ff ff ff       	mov    edx,0xffffffff
  403896:	03 ea                	add    ebp,edx
  403898:	13 f0                	adc    esi,eax
  40389a:	c7 41 34 02 00 00 00 	mov    DWORD PTR [ecx+0x34],0x2
  4038a1:	3b 73 08             	cmp    esi,DWORD PTR [ebx+0x8]
  4038a4:	7c a7                	jl     0x40384d
  4038a6:	89 71 24             	mov    DWORD PTR [ecx+0x24],esi
  4038a9:	89 69 28             	mov    DWORD PTR [ecx+0x28],ebp
  4038ac:	a1 58 39 40 00       	mov    eax,ds:0x403958
  4038b1:	2b c7                	sub    eax,edi
  4038b3:	c1 e8 03             	shr    eax,0x3
  4038b6:	89 3d 50 39 40 00    	mov    DWORD PTR ds:0x403950,edi
  4038bc:	74 0c                	je     0x4038ca
  4038be:	e9 7b fa ff ff       	jmp    0x40333e
  4038c3:	33 ed                	xor    ebp,ebp
  4038c5:	33 f6                	xor    esi,esi
  4038c7:	89 71 18             	mov    DWORD PTR [ecx+0x18],esi
  4038ca:	8b 0d 4c 39 40 00    	mov    ecx,DWORD PTR ds:0x40394c
  4038d0:	89 69 28             	mov    DWORD PTR [ecx+0x28],ebp
  4038d3:	89 71 24             	mov    DWORD PTR [ecx+0x24],esi
  4038d6:	5d                   	pop    ebp
  4038d7:	83 45 0c 54          	add    DWORD PTR [ebp+0xc],0x54
  4038db:	81 7d 0c a0 4e 40 00 	cmp    DWORD PTR [ebp+0xc],0x404ea0
  4038e2:	0f 8c 18 fa ff ff    	jl     0x403300
  4038e8:	5f                   	pop    edi
  4038e9:	5e                   	pop    esi
  4038ea:	5b                   	pop    ebx
  4038eb:	c9                   	leave  
  4038ec:	c3                   	ret


    
  4038ed:	cc                   	int3   
  4038ee:	cc                   	int3   
  4038ef:	cc                   	int3   
  4038f0:	cc                   	int3   
  4038f1:	cc                   	int3   
  4038f2:	cc                   	int3   
  4038f3:	cc                   	int3   
  4038f4:	cc                   	int3   
  4038f5:	cc                   	int3   
  4038f6:	cc                   	int3   
  4038f7:	cc                   	int3   
  4038f8:	cc                   	int3   
  4038f9:	cc                   	int3   
  4038fa:	cc                   	int3   
  4038fb:	cc                   	int3   
  4038fc:	cc                   	int3   
  4038fd:	cc                   	int3   
  4038fe:	cc                   	int3   
  4038ff:	cc                   	int3   
	...
  40a004:	00 00                	add    BYTE PTR [eax],al
  40a006:	6b 65 72 6e          	imul   esp,DWORD PTR [ebp+0x72],0x6e
  40a00a:	65                   	gs
  40a00b:	6c                   	ins    BYTE PTR es:[edi],dx
  40a00c:	33 32                	xor    esi,DWORD PTR [edx]
  40a00e:	2e                   	cs
  40a00f:	64                   	fs
  40a010:	6c                   	ins    BYTE PTR es:[edi],dx
  40a011:	6c                   	ins    BYTE PTR es:[edi],dx
  40a012:	00 77 69             	add    BYTE PTR [edi+0x69],dh
  40a015:	6e                   	outs   dx,BYTE PTR ds:[esi]
  40a016:	6d                   	ins    DWORD PTR es:[edi],dx
  40a017:	6d                   	ins    DWORD PTR es:[edi],dx
  40a018:	2e                   	cs
  40a019:	64                   	fs
  40a01a:	6c                   	ins    BYTE PTR es:[edi],dx
  40a01b:	6c                   	ins    BYTE PTR es:[edi],dx
  40a01c:	00 77 61             	add    BYTE PTR [edi+0x61],dh
  40a01f:	76 65                	jbe    0x40a086
  40a021:	4f                   	dec    edi
  40a022:	75 74                	jne    0x40a098
  40a024:	52                   	push   edx
  40a025:	65                   	gs
  40a026:	73 65                	jae    0x40a08d
  40a028:	74 00                	je     0x40a02a
  40a02a:	77 61                	ja     0x40a08d
  40a02c:	76 65                	jbe    0x40a093
  40a02e:	4f                   	dec    edi
  40a02f:	75 74                	jne    0x40a0a5
  40a031:	47                   	inc    edi
  40a032:	65                   	gs
  40a033:	74 50                	je     0x40a085
  40a035:	6f                   	outs   dx,DWORD PTR ds:[esi]
  40a036:	73 69                	jae    0x40a0a1
  40a038:	74 69                	je     0x40a0a3
  40a03a:	6f                   	outs   dx,DWORD PTR ds:[esi]
  40a03b:	6e                   	outs   dx,BYTE PTR ds:[esi]
  40a03c:	00 77 61             	add    BYTE PTR [edi+0x61],dh
  40a03f:	76 65                	jbe    0x40a0a6
  40a041:	4f                   	dec    edi
  40a042:	75 74                	jne    0x40a0b8
  40a044:	55                   	push   ebp
  40a045:	6e                   	outs   dx,BYTE PTR ds:[esi]
  40a046:	70 72                	jo     0x40a0ba
  40a048:	65                   	gs
  40a049:	70 61                	jo     0x40a0ac
  40a04b:	72 65                	jb     0x40a0b2
  40a04d:	48                   	dec    eax
  40a04e:	65                   	gs
  40a04f:	61                   	popa   
  40a050:	64                   	fs
  40a051:	65                   	gs
  40a052:	72 00                	jb     0x40a054
  40a054:	77 61                	ja     0x40a0b7
  40a056:	76 65                	jbe    0x40a0bd
  40a058:	4f                   	dec    edi
  40a059:	75 74                	jne    0x40a0cf
  40a05b:	43                   	inc    ebx
  40a05c:	6c                   	ins    BYTE PTR es:[edi],dx
  40a05d:	6f                   	outs   dx,DWORD PTR ds:[esi]
  40a05e:	73 65                	jae    0x40a0c5
  40a060:	00 77 61             	add    BYTE PTR [edi+0x61],dh
  40a063:	76 65                	jbe    0x40a0ca
  40a065:	4f                   	dec    edi
  40a066:	75 74                	jne    0x40a0dc
  40a068:	57                   	push   edi
  40a069:	72 69                	jb     0x40a0d4
  40a06b:	74 65                	je     0x40a0d2
  40a06d:	00 77 61             	add    BYTE PTR [edi+0x61],dh
  40a070:	76 65                	jbe    0x40a0d7
  40a072:	4f                   	dec    edi
  40a073:	75 74                	jne    0x40a0e9
  40a075:	50                   	push   eax
  40a076:	72 65                	jb     0x40a0dd
  40a078:	70 61                	jo     0x40a0db
  40a07a:	72 65                	jb     0x40a0e1
  40a07c:	48                   	dec    eax
  40a07d:	65                   	gs
  40a07e:	61                   	popa   
  40a07f:	64                   	fs
  40a080:	65                   	gs
  40a081:	72 00                	jb     0x40a083
  40a083:	77 61                	ja     0x40a0e6
  40a085:	76 65                	jbe    0x40a0ec
  40a087:	4f                   	dec    edi
  40a088:	75 74                	jne    0x40a0fe
  40a08a:	4f                   	dec    edi
  40a08b:	70 65                	jo     0x40a0f2
  40a08d:	6e                   	outs   dx,BYTE PTR ds:[esi]
  40a08e:	00 43 72             	add    BYTE PTR [ebx+0x72],al
  40a091:	65                   	gs
  40a092:	61                   	popa   
  40a093:	74 65                	je     0x40a0fa
  40a095:	54                   	push   esp
  40a096:	68 72 65 61 64       	push   0x64616572
  40a09b:	00 43 6c             	add    BYTE PTR [ebx+0x6c],al
  40a09e:	6f                   	outs   dx,DWORD PTR ds:[esi]
  40a09f:	73 65                	jae    0x40a106
  40a0a1:	48                   	dec    eax
  40a0a2:	61                   	popa   
  40a0a3:	6e                   	outs   dx,BYTE PTR ds:[esi]
  40a0a4:	64                   	fs
  40a0a5:	6c                   	ins    BYTE PTR es:[edi],dx
  40a0a6:	65 00 4c 6f 63       	add    BYTE PTR gs:[edi+ebp*2+0x63],cl
  40a0ab:	61                   	popa   
  40a0ac:	6c                   	ins    BYTE PTR es:[edi],dx
  40a0ad:	41                   	inc    ecx
  40a0ae:	6c                   	ins    BYTE PTR es:[edi],dx
  40a0af:	6c                   	ins    BYTE PTR es:[edi],dx
  40a0b0:	6f                   	outs   dx,DWORD PTR ds:[esi]
  40a0b1:	63 00                	arpl   WORD PTR [eax],ax
  40a0b3:	4c                   	dec    esp
  40a0b4:	6f                   	outs   dx,DWORD PTR ds:[esi]
  40a0b5:	63 61 6c             	arpl   WORD PTR [ecx+0x6c],sp
  40a0b8:	46                   	inc    esi
  40a0b9:	72 65                	jb     0x40a120
  40a0bb:	65 00 53 6c          	add    BYTE PTR gs:[ebx+0x6c],dl
  40a0bf:	65                   	gs
  40a0c0:	65                   	gs
  40a0c1:	70 00                	jo     0x40a0c3
  40a0c3:	4c                   	dec    esp
  40a0c4:	6f                   	outs   dx,DWORD PTR ds:[esi]
  40a0c5:	61                   	popa   
  40a0c6:	64                   	fs


  40a0c7:	4c                   	dec    esp
  40a0c8:	69 62 72 61 72 79 41 	imul   esp,DWORD PTR [edx+0x72],0x41797261
#Ayra
  40a0cf:	00 55 89             	add    BYTE PTR [ebp-0x77],dl
  40a0d2:	e5 56                	in     eax,0x56
  40a0d4:	57                   	push   edi
  40a0d5:	8b 4d 0c             	mov    ecx,DWORD PTR [ebp+0xc]
  40a0d8:	8b 15 64 a2 40 00    	mov    edx,DWORD PTR ds:0x40a264
  40a0de:	01 ca                	add    edx,ecx
  40a0e0:	a1 6c a2 40 00       	mov    eax,ds:0x40a26c
  40a0e5:	39 c2                	cmp    edx,eax
  40a0e7:	7c 0a                	jl     0x40a0f3
  40a0e9:	2b 05 64 a2 40 00    	sub    eax,DWORD PTR ds:0x40a264
  40a0ef:	89 45 0c             	mov    DWORD PTR [ebp+0xc],eax
  40a0f2:	91                   	xchg   ecx,eax
  40a0f3:	8b 35 68 a2 40 00    	mov    esi,DWORD PTR ds:0x40a268
  40a0f9:	03 35 64 a2 40 00    	add    esi,DWORD PTR ds:0x40a264
  40a0ff:	8b 7d 08             	mov    edi,DWORD PTR [ebp+0x8]
  40a102:	f3 a4                	rep movs BYTE PTR es:[edi],BYTE PTR ds:[esi]
  40a104:	8b 45 0c             	mov    eax,DWORD PTR [ebp+0xc]
  40a107:	89 15 64 a2 40 00    	mov    DWORD PTR ds:0x40a264,edx
  40a10d:	5f                   	pop    edi
  40a10e:	5e                   	pop    esi
  40a10f:	c9                   	leave  
  40a110:	c3                   	ret


    
  40a111:	55                   	push   ebp
  40a112:	89 e5                	mov    ebp,esp
  40a114:	8b 45 0c             	mov    eax,DWORD PTR [ebp+0xc]
  40a117:	8b 55 08             	mov    edx,DWORD PTR [ebp+0x8]
  40a11a:	3c 00                	cmp    al,0x0
  40a11c:	75 06                	jne    0x40a124
  40a11e:	89 15 64 a2 40 00    	mov    DWORD PTR ds:0x40a264,edx
  40a124:	3c 01                	cmp    al,0x1
  40a126:	75 06                	jne    0x40a12e
  40a128:	01 15 64 a2 40 00    	add    DWORD PTR ds:0x40a264,edx
  40a12e:	3c 02                	cmp    al,0x2
  40a130:	75 0c                	jne    0x40a13e
  40a132:	03 15 6c a2 40 00    	add    edx,DWORD PTR ds:0x40a26c
  40a138:	89 15 64 a2 40 00    	mov    DWORD PTR ds:0x40a264,edx
  40a13e:	a1 6c a2 40 00       	mov    eax,ds:0x40a26c
  40a143:	39 05 64 a2 40 00    	cmp    DWORD PTR ds:0x40a264,eax
  40a149:	7e 05                	jle    0x40a150
  40a14b:	a3 64 a2 40 00       	mov    ds:0x40a264,eax
  40a150:	c9                   	leave  
  40a151:	c3                   	ret


    
  40a152:	a1 64 a2 40 00       	mov    eax,ds:0x40a264
  40a157:	c3                   	ret


    
  40a158:	55                   	push   ebp
  40a159:	89 e5                	mov    ebp,esp
  40a15b:	56                   	push   esi
  40a15c:	57                   	push   edi
  40a15d:	8b 45 14             	mov    eax,DWORD PTR [ebp+0x14]
  40a160:	a3 6c a2 40 00       	mov    ds:0x40a26c,eax
  40a165:	8b 45 10             	mov    eax,DWORD PTR [ebp+0x10]
  40a168:	a3 68 a2 40 00       	mov    ds:0x40a268,eax
  40a16d:	8b 75 08             	mov    esi,DWORD PTR [ebp+0x8]
  40a170:	68 06 a0 40 00       	push   0x40a006
  40a175:	ff d6                	call   esi
  40a177:	89 c6                	mov    esi,eax
  40a179:	8b 7d 0c             	mov    edi,DWORD PTR [ebp+0xc]
  40a17c:	68 8f a0 40 00       	push   0x40a08f
  40a181:	56                   	push   esi
  40a182:	ff d7                	call   edi
  40a184:	a3 20 10 40 00       	mov    ds:0x401020,eax
  40a189:	68 9c a0 40 00       	push   0x40a09c
  40a18e:	56                   	push   esi
  40a18f:	ff d7                	call   edi
  40a191:	a3 28 10 40 00       	mov    ds:0x401028,eax
  40a196:	68 a8 a0 40 00       	push   0x40a0a8
  40a19b:	56                   	push   esi
  40a19c:	ff d7                	call   edi
  40a19e:	a3 2c 10 40 00       	mov    ds:0x40102c,eax
  40a1a3:	68 b3 a0 40 00       	push   0x40a0b3
  40a1a8:	56                   	push   esi
  40a1a9:	ff d7                	call   edi
  40a1ab:	a3 30 10 40 00       	mov    ds:0x401030,eax
  40a1b0:	68 bd a0 40 00       	push   0x40a0bd
  40a1b5:	56                   	push   esi
  40a1b6:	ff d7                	call   edi
  40a1b8:	a3 34 10 40 00       	mov    ds:0x401034,eax
  40a1bd:	68 c3 a0 40 00       	push   0x40a0c3
  40a1c2:	56                   	push   esi
  40a1c3:	ff d7                	call   edi
  40a1c5:	68 13 a0 40 00       	push   0x40a013
  40a1ca:	ff d0                	call   eax
  40a1cc:	89 c6                	mov    esi,eax
  40a1ce:	68 1d a0 40 00       	push   0x40a01d
  40a1d3:	56                   	push   esi
  40a1d4:	ff d7                	call   edi
  40a1d6:	a3 00 10 40 00       	mov    ds:0x401000,eax
  40a1db:	68 2a a0 40 00       	push   0x40a02a
  40a1e0:	56                   	push   esi
  40a1e1:	ff d7                	call   edi
  40a1e3:	a3 04 10 40 00       	mov    ds:0x401004,eax
  40a1e8:	68 3d a0 40 00       	push   0x40a03d
  40a1ed:	56                   	push   esi
  40a1ee:	ff d7                	call   edi
  40a1f0:	a3 08 10 40 00       	mov    ds:0x401008,eax
  40a1f5:	68 54 a0 40 00       	push   0x40a054
  40a1fa:	56                   	push   esi
  40a1fb:	ff d7                	call   edi
  40a1fd:	a3 0c 10 40 00       	mov    ds:0x40100c,eax
  40a202:	68 61 a0 40 00       	push   0x40a061
  40a207:	56                   	push   esi
  40a208:	ff d7                	call   edi
  40a20a:	a3 10 10 40 00       	mov    ds:0x401010,eax
  40a20f:	68 6e a0 40 00       	push   0x40a06e
  40a214:	56                   	push   esi
  40a215:	ff d7                	call   edi
  40a217:	a3 14 10 40 00       	mov    ds:0x401014,eax
  40a21c:	68 83 a0 40 00       	push   0x40a083
  40a221:	56                   	push   esi
  40a222:	ff d7                	call   edi
  40a224:	a3 18 10 40 00       	mov    ds:0x401018,eax
  40a229:	68 52 a1 40 00       	push   0x40a152
  40a22e:	68 11 a1 40 00       	push   0x40a111
  40a233:	68 d0 a0 40 00       	push   0x40a0d0
  40a238:	68 52 a1 40 00       	push   0x40a152
  40a23d:	68 52 a1 40 00       	push   0x40a152
  40a242:	b8 4b 14 40 00       	mov    eax,0x40144b
  40a247:	ff d0                	call   eax
  40a249:	50                   	push   eax
  40a24a:	b8 a0 10 40 00       	mov    eax,0x4010a0
  40a24f:	ff d0                	call   eax
  40a251:	a3 1c 10 40 00       	mov    ds:0x40101c,eax
  40a256:	50                   	push   eax
  40a257:	b8 94 11 40 00       	mov    eax,0x401194
  40a25c:	ff d0                	call   eax
  40a25e:	5f                   	pop    edi
  40a25f:	5e                   	pop    esi
  40a260:	c9                   	leave  
  40a261:	c2 10 00             	ret


    0x10
	...
